
kernel/kernel:     file format elf64-littleriscv


Disassembly of section .text:

0000000080000000 <_entry>:
    80000000:	0001e117          	auipc	sp,0x1e
    80000004:	14010113          	addi	sp,sp,320 # 8001e140 <stack0>
    80000008:	6505                	lui	a0,0x1
    8000000a:	f14025f3          	csrr	a1,mhartid
    8000000e:	0585                	addi	a1,a1,1
    80000010:	02b50533          	mul	a0,a0,a1
    80000014:	912a                	add	sp,sp,a0
    80000016:	7a2050ef          	jal	ra,800057b8 <start>

000000008000001a <spin>:
    8000001a:	a001                	j	8000001a <spin>

000000008000001c <kfree>:
// which normally should have been returned by a
// call to kalloc().  (The exception is when
// initializing the allocator; see kinit above.)
void
kfree(void *pa)
{
    8000001c:	1101                	addi	sp,sp,-32
    8000001e:	ec06                	sd	ra,24(sp)
    80000020:	e822                	sd	s0,16(sp)
    80000022:	e426                	sd	s1,8(sp)
    80000024:	e04a                	sd	s2,0(sp)
    80000026:	1000                	addi	s0,sp,32
  struct run *r;

  if(((uint64)pa % PGSIZE) != 0 || (char*)pa < end || (uint64)pa >= PHYSTOP)
    80000028:	03451793          	slli	a5,a0,0x34
    8000002c:	ebb9                	bnez	a5,80000082 <kfree+0x66>
    8000002e:	84aa                	mv	s1,a0
    80000030:	00026797          	auipc	a5,0x26
    80000034:	21078793          	addi	a5,a5,528 # 80026240 <end>
    80000038:	04f56563          	bltu	a0,a5,80000082 <kfree+0x66>
    8000003c:	47c5                	li	a5,17
    8000003e:	07ee                	slli	a5,a5,0x1b
    80000040:	04f57163          	bgeu	a0,a5,80000082 <kfree+0x66>
    panic("kfree");

  // Fill with junk to catch dangling refs.
  memset(pa, 1, PGSIZE);
    80000044:	6605                	lui	a2,0x1
    80000046:	4585                	li	a1,1
    80000048:	00000097          	auipc	ra,0x0
    8000004c:	17a080e7          	jalr	378(ra) # 800001c2 <memset>

  r = (struct run*)pa;

  acquire(&kmem.lock);
    80000050:	00009917          	auipc	s2,0x9
    80000054:	fe090913          	addi	s2,s2,-32 # 80009030 <kmem>
    80000058:	854a                	mv	a0,s2
    8000005a:	00006097          	auipc	ra,0x6
    8000005e:	158080e7          	jalr	344(ra) # 800061b2 <acquire>
  r->next = kmem.freelist;
    80000062:	01893783          	ld	a5,24(s2)
    80000066:	e09c                	sd	a5,0(s1)
  kmem.freelist = r;
    80000068:	00993c23          	sd	s1,24(s2)
  release(&kmem.lock);
    8000006c:	854a                	mv	a0,s2
    8000006e:	00006097          	auipc	ra,0x6
    80000072:	1f8080e7          	jalr	504(ra) # 80006266 <release>
}
    80000076:	60e2                	ld	ra,24(sp)
    80000078:	6442                	ld	s0,16(sp)
    8000007a:	64a2                	ld	s1,8(sp)
    8000007c:	6902                	ld	s2,0(sp)
    8000007e:	6105                	addi	sp,sp,32
    80000080:	8082                	ret
    panic("kfree");
    80000082:	00008517          	auipc	a0,0x8
    80000086:	f8e50513          	addi	a0,a0,-114 # 80008010 <etext+0x10>
    8000008a:	00006097          	auipc	ra,0x6
    8000008e:	bde080e7          	jalr	-1058(ra) # 80005c68 <panic>

0000000080000092 <freerange>:
{
    80000092:	7179                	addi	sp,sp,-48
    80000094:	f406                	sd	ra,40(sp)
    80000096:	f022                	sd	s0,32(sp)
    80000098:	ec26                	sd	s1,24(sp)
    8000009a:	e84a                	sd	s2,16(sp)
    8000009c:	e44e                	sd	s3,8(sp)
    8000009e:	e052                	sd	s4,0(sp)
    800000a0:	1800                	addi	s0,sp,48
  p = (char*)PGROUNDUP((uint64)pa_start);
    800000a2:	6785                	lui	a5,0x1
    800000a4:	fff78493          	addi	s1,a5,-1 # fff <_entry-0x7ffff001>
    800000a8:	94aa                	add	s1,s1,a0
    800000aa:	757d                	lui	a0,0xfffff
    800000ac:	8ce9                	and	s1,s1,a0
  for(; p + PGSIZE <= (char*)pa_end; p += PGSIZE)
    800000ae:	94be                	add	s1,s1,a5
    800000b0:	0095ee63          	bltu	a1,s1,800000cc <freerange+0x3a>
    800000b4:	892e                	mv	s2,a1
    kfree(p);
    800000b6:	7a7d                	lui	s4,0xfffff
  for(; p + PGSIZE <= (char*)pa_end; p += PGSIZE)
    800000b8:	6985                	lui	s3,0x1
    kfree(p);
    800000ba:	01448533          	add	a0,s1,s4
    800000be:	00000097          	auipc	ra,0x0
    800000c2:	f5e080e7          	jalr	-162(ra) # 8000001c <kfree>
  for(; p + PGSIZE <= (char*)pa_end; p += PGSIZE)
    800000c6:	94ce                	add	s1,s1,s3
    800000c8:	fe9979e3          	bgeu	s2,s1,800000ba <freerange+0x28>
}
    800000cc:	70a2                	ld	ra,40(sp)
    800000ce:	7402                	ld	s0,32(sp)
    800000d0:	64e2                	ld	s1,24(sp)
    800000d2:	6942                	ld	s2,16(sp)
    800000d4:	69a2                	ld	s3,8(sp)
    800000d6:	6a02                	ld	s4,0(sp)
    800000d8:	6145                	addi	sp,sp,48
    800000da:	8082                	ret

00000000800000dc <kinit>:
{
    800000dc:	1141                	addi	sp,sp,-16
    800000de:	e406                	sd	ra,8(sp)
    800000e0:	e022                	sd	s0,0(sp)
    800000e2:	0800                	addi	s0,sp,16
  initlock(&kmem.lock, "kmem");
    800000e4:	00008597          	auipc	a1,0x8
    800000e8:	f3458593          	addi	a1,a1,-204 # 80008018 <etext+0x18>
    800000ec:	00009517          	auipc	a0,0x9
    800000f0:	f4450513          	addi	a0,a0,-188 # 80009030 <kmem>
    800000f4:	00006097          	auipc	ra,0x6
    800000f8:	02e080e7          	jalr	46(ra) # 80006122 <initlock>
  freerange(end, (void*)PHYSTOP);
    800000fc:	45c5                	li	a1,17
    800000fe:	05ee                	slli	a1,a1,0x1b
    80000100:	00026517          	auipc	a0,0x26
    80000104:	14050513          	addi	a0,a0,320 # 80026240 <end>
    80000108:	00000097          	auipc	ra,0x0
    8000010c:	f8a080e7          	jalr	-118(ra) # 80000092 <freerange>
}
    80000110:	60a2                	ld	ra,8(sp)
    80000112:	6402                	ld	s0,0(sp)
    80000114:	0141                	addi	sp,sp,16
    80000116:	8082                	ret

0000000080000118 <kalloc>:
// Allocate one 4096-byte page of physical memory.
// Returns a pointer that the kernel can use.
// Returns 0 if the memory cannot be allocated.
void *
kalloc(void)
{
    80000118:	1101                	addi	sp,sp,-32
    8000011a:	ec06                	sd	ra,24(sp)
    8000011c:	e822                	sd	s0,16(sp)
    8000011e:	e426                	sd	s1,8(sp)
    80000120:	1000                	addi	s0,sp,32
  struct run *r;

  acquire(&kmem.lock);
    80000122:	00009497          	auipc	s1,0x9
    80000126:	f0e48493          	addi	s1,s1,-242 # 80009030 <kmem>
    8000012a:	8526                	mv	a0,s1
    8000012c:	00006097          	auipc	ra,0x6
    80000130:	086080e7          	jalr	134(ra) # 800061b2 <acquire>
  r = kmem.freelist;
    80000134:	6c84                	ld	s1,24(s1)
  if(r)
    80000136:	c885                	beqz	s1,80000166 <kalloc+0x4e>
    kmem.freelist = r->next;
    80000138:	609c                	ld	a5,0(s1)
    8000013a:	00009517          	auipc	a0,0x9
    8000013e:	ef650513          	addi	a0,a0,-266 # 80009030 <kmem>
    80000142:	ed1c                	sd	a5,24(a0)
  release(&kmem.lock);
    80000144:	00006097          	auipc	ra,0x6
    80000148:	122080e7          	jalr	290(ra) # 80006266 <release>

  if(r)
    memset((char*)r, 5, PGSIZE); // fill with junk
    8000014c:	6605                	lui	a2,0x1
    8000014e:	4595                	li	a1,5
    80000150:	8526                	mv	a0,s1
    80000152:	00000097          	auipc	ra,0x0
    80000156:	070080e7          	jalr	112(ra) # 800001c2 <memset>
  return (void*)r;
}
    8000015a:	8526                	mv	a0,s1
    8000015c:	60e2                	ld	ra,24(sp)
    8000015e:	6442                	ld	s0,16(sp)
    80000160:	64a2                	ld	s1,8(sp)
    80000162:	6105                	addi	sp,sp,32
    80000164:	8082                	ret
  release(&kmem.lock);
    80000166:	00009517          	auipc	a0,0x9
    8000016a:	eca50513          	addi	a0,a0,-310 # 80009030 <kmem>
    8000016e:	00006097          	auipc	ra,0x6
    80000172:	0f8080e7          	jalr	248(ra) # 80006266 <release>
  if(r)
    80000176:	b7d5                	j	8000015a <kalloc+0x42>

0000000080000178 <getfreemem>:
    80000178:	1101                	addi	sp,sp,-32
    8000017a:	ec06                	sd	ra,24(sp)
    8000017c:	e822                	sd	s0,16(sp)
    8000017e:	e426                	sd	s1,8(sp)
    80000180:	1000                	addi	s0,sp,32
    80000182:	00009497          	auipc	s1,0x9
    80000186:	eae48493          	addi	s1,s1,-338 # 80009030 <kmem>
    8000018a:	8526                	mv	a0,s1
    8000018c:	00006097          	auipc	ra,0x6
    80000190:	026080e7          	jalr	38(ra) # 800061b2 <acquire>
    80000194:	6c9c                	ld	a5,24(s1)
    80000196:	c785                	beqz	a5,800001be <getfreemem+0x46>
    80000198:	4481                	li	s1,0
    8000019a:	6705                	lui	a4,0x1
    8000019c:	94ba                	add	s1,s1,a4
    8000019e:	639c                	ld	a5,0(a5)
    800001a0:	fff5                	bnez	a5,8000019c <getfreemem+0x24>
    800001a2:	00009517          	auipc	a0,0x9
    800001a6:	e8e50513          	addi	a0,a0,-370 # 80009030 <kmem>
    800001aa:	00006097          	auipc	ra,0x6
    800001ae:	0bc080e7          	jalr	188(ra) # 80006266 <release>
    800001b2:	8526                	mv	a0,s1
    800001b4:	60e2                	ld	ra,24(sp)
    800001b6:	6442                	ld	s0,16(sp)
    800001b8:	64a2                	ld	s1,8(sp)
    800001ba:	6105                	addi	sp,sp,32
    800001bc:	8082                	ret
    800001be:	4481                	li	s1,0
    800001c0:	b7cd                	j	800001a2 <getfreemem+0x2a>

00000000800001c2 <memset>:
#include "types.h"

void*
memset(void *dst, int c, uint n)
{
    800001c2:	1141                	addi	sp,sp,-16
    800001c4:	e422                	sd	s0,8(sp)
    800001c6:	0800                	addi	s0,sp,16
  char *cdst = (char *) dst;
  int i;
  for(i = 0; i < n; i++){
    800001c8:	ce09                	beqz	a2,800001e2 <memset+0x20>
    800001ca:	87aa                	mv	a5,a0
    800001cc:	fff6071b          	addiw	a4,a2,-1
    800001d0:	1702                	slli	a4,a4,0x20
    800001d2:	9301                	srli	a4,a4,0x20
    800001d4:	0705                	addi	a4,a4,1
    800001d6:	972a                	add	a4,a4,a0
    cdst[i] = c;
    800001d8:	00b78023          	sb	a1,0(a5)
  for(i = 0; i < n; i++){
    800001dc:	0785                	addi	a5,a5,1
    800001de:	fee79de3          	bne	a5,a4,800001d8 <memset+0x16>
  }
  return dst;
}
    800001e2:	6422                	ld	s0,8(sp)
    800001e4:	0141                	addi	sp,sp,16
    800001e6:	8082                	ret

00000000800001e8 <memcmp>:

int
memcmp(const void *v1, const void *v2, uint n)
{
    800001e8:	1141                	addi	sp,sp,-16
    800001ea:	e422                	sd	s0,8(sp)
    800001ec:	0800                	addi	s0,sp,16
  const uchar *s1, *s2;

  s1 = v1;
  s2 = v2;
  while(n-- > 0){
    800001ee:	ca05                	beqz	a2,8000021e <memcmp+0x36>
    800001f0:	fff6069b          	addiw	a3,a2,-1
    800001f4:	1682                	slli	a3,a3,0x20
    800001f6:	9281                	srli	a3,a3,0x20
    800001f8:	0685                	addi	a3,a3,1
    800001fa:	96aa                	add	a3,a3,a0
    if(*s1 != *s2)
    800001fc:	00054783          	lbu	a5,0(a0)
    80000200:	0005c703          	lbu	a4,0(a1)
    80000204:	00e79863          	bne	a5,a4,80000214 <memcmp+0x2c>
      return *s1 - *s2;
    s1++, s2++;
    80000208:	0505                	addi	a0,a0,1
    8000020a:	0585                	addi	a1,a1,1
  while(n-- > 0){
    8000020c:	fed518e3          	bne	a0,a3,800001fc <memcmp+0x14>
  }

  return 0;
    80000210:	4501                	li	a0,0
    80000212:	a019                	j	80000218 <memcmp+0x30>
      return *s1 - *s2;
    80000214:	40e7853b          	subw	a0,a5,a4
}
    80000218:	6422                	ld	s0,8(sp)
    8000021a:	0141                	addi	sp,sp,16
    8000021c:	8082                	ret
  return 0;
    8000021e:	4501                	li	a0,0
    80000220:	bfe5                	j	80000218 <memcmp+0x30>

0000000080000222 <memmove>:

void*
memmove(void *dst, const void *src, uint n)
{
    80000222:	1141                	addi	sp,sp,-16
    80000224:	e422                	sd	s0,8(sp)
    80000226:	0800                	addi	s0,sp,16
  const char *s;
  char *d;

  if(n == 0)
    80000228:	ca0d                	beqz	a2,8000025a <memmove+0x38>
    return dst;
  
  s = src;
  d = dst;
  if(s < d && s + n > d){
    8000022a:	00a5f963          	bgeu	a1,a0,8000023c <memmove+0x1a>
    8000022e:	02061693          	slli	a3,a2,0x20
    80000232:	9281                	srli	a3,a3,0x20
    80000234:	00d58733          	add	a4,a1,a3
    80000238:	02e56463          	bltu	a0,a4,80000260 <memmove+0x3e>
    s += n;
    d += n;
    while(n-- > 0)
      *--d = *--s;
  } else
    while(n-- > 0)
    8000023c:	fff6079b          	addiw	a5,a2,-1
    80000240:	1782                	slli	a5,a5,0x20
    80000242:	9381                	srli	a5,a5,0x20
    80000244:	0785                	addi	a5,a5,1
    80000246:	97ae                	add	a5,a5,a1
    80000248:	872a                	mv	a4,a0
      *d++ = *s++;
    8000024a:	0585                	addi	a1,a1,1
    8000024c:	0705                	addi	a4,a4,1
    8000024e:	fff5c683          	lbu	a3,-1(a1)
    80000252:	fed70fa3          	sb	a3,-1(a4) # fff <_entry-0x7ffff001>
    while(n-- > 0)
    80000256:	fef59ae3          	bne	a1,a5,8000024a <memmove+0x28>

  return dst;
}
    8000025a:	6422                	ld	s0,8(sp)
    8000025c:	0141                	addi	sp,sp,16
    8000025e:	8082                	ret
    d += n;
    80000260:	96aa                	add	a3,a3,a0
    while(n-- > 0)
    80000262:	fff6079b          	addiw	a5,a2,-1
    80000266:	1782                	slli	a5,a5,0x20
    80000268:	9381                	srli	a5,a5,0x20
    8000026a:	fff7c793          	not	a5,a5
    8000026e:	97ba                	add	a5,a5,a4
      *--d = *--s;
    80000270:	177d                	addi	a4,a4,-1
    80000272:	16fd                	addi	a3,a3,-1
    80000274:	00074603          	lbu	a2,0(a4)
    80000278:	00c68023          	sb	a2,0(a3)
    while(n-- > 0)
    8000027c:	fef71ae3          	bne	a4,a5,80000270 <memmove+0x4e>
    80000280:	bfe9                	j	8000025a <memmove+0x38>

0000000080000282 <memcpy>:

// memcpy exists to placate GCC.  Use memmove.
void*
memcpy(void *dst, const void *src, uint n)
{
    80000282:	1141                	addi	sp,sp,-16
    80000284:	e406                	sd	ra,8(sp)
    80000286:	e022                	sd	s0,0(sp)
    80000288:	0800                	addi	s0,sp,16
  return memmove(dst, src, n);
    8000028a:	00000097          	auipc	ra,0x0
    8000028e:	f98080e7          	jalr	-104(ra) # 80000222 <memmove>
}
    80000292:	60a2                	ld	ra,8(sp)
    80000294:	6402                	ld	s0,0(sp)
    80000296:	0141                	addi	sp,sp,16
    80000298:	8082                	ret

000000008000029a <strncmp>:

int
strncmp(const char *p, const char *q, uint n)
{
    8000029a:	1141                	addi	sp,sp,-16
    8000029c:	e422                	sd	s0,8(sp)
    8000029e:	0800                	addi	s0,sp,16
  while(n > 0 && *p && *p == *q)
    800002a0:	ce11                	beqz	a2,800002bc <strncmp+0x22>
    800002a2:	00054783          	lbu	a5,0(a0)
    800002a6:	cf89                	beqz	a5,800002c0 <strncmp+0x26>
    800002a8:	0005c703          	lbu	a4,0(a1)
    800002ac:	00f71a63          	bne	a4,a5,800002c0 <strncmp+0x26>
    n--, p++, q++;
    800002b0:	367d                	addiw	a2,a2,-1
    800002b2:	0505                	addi	a0,a0,1
    800002b4:	0585                	addi	a1,a1,1
  while(n > 0 && *p && *p == *q)
    800002b6:	f675                	bnez	a2,800002a2 <strncmp+0x8>
  if(n == 0)
    return 0;
    800002b8:	4501                	li	a0,0
    800002ba:	a809                	j	800002cc <strncmp+0x32>
    800002bc:	4501                	li	a0,0
    800002be:	a039                	j	800002cc <strncmp+0x32>
  if(n == 0)
    800002c0:	ca09                	beqz	a2,800002d2 <strncmp+0x38>
  return (uchar)*p - (uchar)*q;
    800002c2:	00054503          	lbu	a0,0(a0)
    800002c6:	0005c783          	lbu	a5,0(a1)
    800002ca:	9d1d                	subw	a0,a0,a5
}
    800002cc:	6422                	ld	s0,8(sp)
    800002ce:	0141                	addi	sp,sp,16
    800002d0:	8082                	ret
    return 0;
    800002d2:	4501                	li	a0,0
    800002d4:	bfe5                	j	800002cc <strncmp+0x32>

00000000800002d6 <strncpy>:

char*
strncpy(char *s, const char *t, int n)
{
    800002d6:	1141                	addi	sp,sp,-16
    800002d8:	e422                	sd	s0,8(sp)
    800002da:	0800                	addi	s0,sp,16
  char *os;

  os = s;
  while(n-- > 0 && (*s++ = *t++) != 0)
    800002dc:	872a                	mv	a4,a0
    800002de:	8832                	mv	a6,a2
    800002e0:	367d                	addiw	a2,a2,-1
    800002e2:	01005963          	blez	a6,800002f4 <strncpy+0x1e>
    800002e6:	0705                	addi	a4,a4,1
    800002e8:	0005c783          	lbu	a5,0(a1)
    800002ec:	fef70fa3          	sb	a5,-1(a4)
    800002f0:	0585                	addi	a1,a1,1
    800002f2:	f7f5                	bnez	a5,800002de <strncpy+0x8>
    ;
  while(n-- > 0)
    800002f4:	00c05d63          	blez	a2,8000030e <strncpy+0x38>
    800002f8:	86ba                	mv	a3,a4
    *s++ = 0;
    800002fa:	0685                	addi	a3,a3,1
    800002fc:	fe068fa3          	sb	zero,-1(a3)
  while(n-- > 0)
    80000300:	fff6c793          	not	a5,a3
    80000304:	9fb9                	addw	a5,a5,a4
    80000306:	010787bb          	addw	a5,a5,a6
    8000030a:	fef048e3          	bgtz	a5,800002fa <strncpy+0x24>
  return os;
}
    8000030e:	6422                	ld	s0,8(sp)
    80000310:	0141                	addi	sp,sp,16
    80000312:	8082                	ret

0000000080000314 <safestrcpy>:

// Like strncpy but guaranteed to NUL-terminate.
char*
safestrcpy(char *s, const char *t, int n)
{
    80000314:	1141                	addi	sp,sp,-16
    80000316:	e422                	sd	s0,8(sp)
    80000318:	0800                	addi	s0,sp,16
  char *os;

  os = s;
  if(n <= 0)
    8000031a:	02c05363          	blez	a2,80000340 <safestrcpy+0x2c>
    8000031e:	fff6069b          	addiw	a3,a2,-1
    80000322:	1682                	slli	a3,a3,0x20
    80000324:	9281                	srli	a3,a3,0x20
    80000326:	96ae                	add	a3,a3,a1
    80000328:	87aa                	mv	a5,a0
    return os;
  while(--n > 0 && (*s++ = *t++) != 0)
    8000032a:	00d58963          	beq	a1,a3,8000033c <safestrcpy+0x28>
    8000032e:	0585                	addi	a1,a1,1
    80000330:	0785                	addi	a5,a5,1
    80000332:	fff5c703          	lbu	a4,-1(a1)
    80000336:	fee78fa3          	sb	a4,-1(a5)
    8000033a:	fb65                	bnez	a4,8000032a <safestrcpy+0x16>
    ;
  *s = 0;
    8000033c:	00078023          	sb	zero,0(a5)
  return os;
}
    80000340:	6422                	ld	s0,8(sp)
    80000342:	0141                	addi	sp,sp,16
    80000344:	8082                	ret

0000000080000346 <strlen>:

int
strlen(const char *s)
{
    80000346:	1141                	addi	sp,sp,-16
    80000348:	e422                	sd	s0,8(sp)
    8000034a:	0800                	addi	s0,sp,16
  int n;

  for(n = 0; s[n]; n++)
    8000034c:	00054783          	lbu	a5,0(a0)
    80000350:	cf91                	beqz	a5,8000036c <strlen+0x26>
    80000352:	0505                	addi	a0,a0,1
    80000354:	87aa                	mv	a5,a0
    80000356:	4685                	li	a3,1
    80000358:	9e89                	subw	a3,a3,a0
    8000035a:	00f6853b          	addw	a0,a3,a5
    8000035e:	0785                	addi	a5,a5,1
    80000360:	fff7c703          	lbu	a4,-1(a5)
    80000364:	fb7d                	bnez	a4,8000035a <strlen+0x14>
    ;
  return n;
}
    80000366:	6422                	ld	s0,8(sp)
    80000368:	0141                	addi	sp,sp,16
    8000036a:	8082                	ret
  for(n = 0; s[n]; n++)
    8000036c:	4501                	li	a0,0
    8000036e:	bfe5                	j	80000366 <strlen+0x20>

0000000080000370 <main>:
volatile static int started = 0;

// start() jumps here in supervisor mode on all CPUs.
void
main()
{
    80000370:	1141                	addi	sp,sp,-16
    80000372:	e406                	sd	ra,8(sp)
    80000374:	e022                	sd	s0,0(sp)
    80000376:	0800                	addi	s0,sp,16
  if(cpuid() == 0){
    80000378:	00001097          	auipc	ra,0x1
    8000037c:	aee080e7          	jalr	-1298(ra) # 80000e66 <cpuid>
    virtio_disk_init(); // emulated hard disk
    userinit();      // first user process
    __sync_synchronize();
    started = 1;
  } else {
    while(started == 0)
    80000380:	00009717          	auipc	a4,0x9
    80000384:	c8070713          	addi	a4,a4,-896 # 80009000 <started>
  if(cpuid() == 0){
    80000388:	c139                	beqz	a0,800003ce <main+0x5e>
    while(started == 0)
    8000038a:	431c                	lw	a5,0(a4)
    8000038c:	2781                	sext.w	a5,a5
    8000038e:	dff5                	beqz	a5,8000038a <main+0x1a>
      ;
    __sync_synchronize();
    80000390:	0ff0000f          	fence
    printf("hart %d starting\n", cpuid());
    80000394:	00001097          	auipc	ra,0x1
    80000398:	ad2080e7          	jalr	-1326(ra) # 80000e66 <cpuid>
    8000039c:	85aa                	mv	a1,a0
    8000039e:	00008517          	auipc	a0,0x8
    800003a2:	c9a50513          	addi	a0,a0,-870 # 80008038 <etext+0x38>
    800003a6:	00006097          	auipc	ra,0x6
    800003aa:	90c080e7          	jalr	-1780(ra) # 80005cb2 <printf>
    kvminithart();    // turn on paging
    800003ae:	00000097          	auipc	ra,0x0
    800003b2:	0d8080e7          	jalr	216(ra) # 80000486 <kvminithart>
    trapinithart();   // install kernel trap vector
    800003b6:	00001097          	auipc	ra,0x1
    800003ba:	75e080e7          	jalr	1886(ra) # 80001b14 <trapinithart>
    plicinithart();   // ask PLIC for device interrupts
    800003be:	00005097          	auipc	ra,0x5
    800003c2:	d82080e7          	jalr	-638(ra) # 80005140 <plicinithart>
  }

  scheduler();        
    800003c6:	00001097          	auipc	ra,0x1
    800003ca:	fde080e7          	jalr	-34(ra) # 800013a4 <scheduler>
    consoleinit();
    800003ce:	00005097          	auipc	ra,0x5
    800003d2:	7ac080e7          	jalr	1964(ra) # 80005b7a <consoleinit>
    printfinit();
    800003d6:	00006097          	auipc	ra,0x6
    800003da:	ac2080e7          	jalr	-1342(ra) # 80005e98 <printfinit>
    printf("\n");
    800003de:	00008517          	auipc	a0,0x8
    800003e2:	c6a50513          	addi	a0,a0,-918 # 80008048 <etext+0x48>
    800003e6:	00006097          	auipc	ra,0x6
    800003ea:	8cc080e7          	jalr	-1844(ra) # 80005cb2 <printf>
    printf("xv6 kernel is booting\n");
    800003ee:	00008517          	auipc	a0,0x8
    800003f2:	c3250513          	addi	a0,a0,-974 # 80008020 <etext+0x20>
    800003f6:	00006097          	auipc	ra,0x6
    800003fa:	8bc080e7          	jalr	-1860(ra) # 80005cb2 <printf>
    printf("\n");
    800003fe:	00008517          	auipc	a0,0x8
    80000402:	c4a50513          	addi	a0,a0,-950 # 80008048 <etext+0x48>
    80000406:	00006097          	auipc	ra,0x6
    8000040a:	8ac080e7          	jalr	-1876(ra) # 80005cb2 <printf>
    kinit();         // physical page allocator
    8000040e:	00000097          	auipc	ra,0x0
    80000412:	cce080e7          	jalr	-818(ra) # 800000dc <kinit>
    kvminit();       // create kernel page table
    80000416:	00000097          	auipc	ra,0x0
    8000041a:	322080e7          	jalr	802(ra) # 80000738 <kvminit>
    kvminithart();   // turn on paging
    8000041e:	00000097          	auipc	ra,0x0
    80000422:	068080e7          	jalr	104(ra) # 80000486 <kvminithart>
    procinit();      // process table
    80000426:	00001097          	auipc	ra,0x1
    8000042a:	990080e7          	jalr	-1648(ra) # 80000db6 <procinit>
    trapinit();      // trap vectors
    8000042e:	00001097          	auipc	ra,0x1
    80000432:	6be080e7          	jalr	1726(ra) # 80001aec <trapinit>
    trapinithart();  // install kernel trap vector
    80000436:	00001097          	auipc	ra,0x1
    8000043a:	6de080e7          	jalr	1758(ra) # 80001b14 <trapinithart>
    plicinit();      // set up interrupt controller
    8000043e:	00005097          	auipc	ra,0x5
    80000442:	cec080e7          	jalr	-788(ra) # 8000512a <plicinit>
    plicinithart();  // ask PLIC for device interrupts
    80000446:	00005097          	auipc	ra,0x5
    8000044a:	cfa080e7          	jalr	-774(ra) # 80005140 <plicinithart>
    binit();         // buffer cache
    8000044e:	00002097          	auipc	ra,0x2
    80000452:	ede080e7          	jalr	-290(ra) # 8000232c <binit>
    iinit();         // inode table
    80000456:	00002097          	auipc	ra,0x2
    8000045a:	56e080e7          	jalr	1390(ra) # 800029c4 <iinit>
    fileinit();      // file table
    8000045e:	00003097          	auipc	ra,0x3
    80000462:	518080e7          	jalr	1304(ra) # 80003976 <fileinit>
    virtio_disk_init(); // emulated hard disk
    80000466:	00005097          	auipc	ra,0x5
    8000046a:	dfc080e7          	jalr	-516(ra) # 80005262 <virtio_disk_init>
    userinit();      // first user process
    8000046e:	00001097          	auipc	ra,0x1
    80000472:	cfc080e7          	jalr	-772(ra) # 8000116a <userinit>
    __sync_synchronize();
    80000476:	0ff0000f          	fence
    started = 1;
    8000047a:	4785                	li	a5,1
    8000047c:	00009717          	auipc	a4,0x9
    80000480:	b8f72223          	sw	a5,-1148(a4) # 80009000 <started>
    80000484:	b789                	j	800003c6 <main+0x56>

0000000080000486 <kvminithart>:

// Switch h/w page table register to the kernel's page table,
// and enable paging.
void
kvminithart()
{
    80000486:	1141                	addi	sp,sp,-16
    80000488:	e422                	sd	s0,8(sp)
    8000048a:	0800                	addi	s0,sp,16
  w_satp(MAKE_SATP(kernel_pagetable));
    8000048c:	00009797          	auipc	a5,0x9
    80000490:	b7c7b783          	ld	a5,-1156(a5) # 80009008 <kernel_pagetable>
    80000494:	83b1                	srli	a5,a5,0xc
    80000496:	577d                	li	a4,-1
    80000498:	177e                	slli	a4,a4,0x3f
    8000049a:	8fd9                	or	a5,a5,a4

// use riscv's sv39 page table scheme.
#define SATP_SV39 (8L << 60)

#define MAKE_SATP(pagetable) (SATP_SV39 | (((uint64)pagetable) >> 12))

    8000049c:	18079073          	csrw	satp,a5
{
  uint64 x;
  asm volatile("mv %0, ra" : "=r" (x) );
  return x;
}

    800004a0:	12000073          	sfence.vma
  sfence_vma();
}
    800004a4:	6422                	ld	s0,8(sp)
    800004a6:	0141                	addi	sp,sp,16
    800004a8:	8082                	ret

00000000800004aa <walk>:
//   21..29 -- 9 bits of level-1 index.
//   12..20 -- 9 bits of level-0 index.
//    0..11 -- 12 bits of byte offset within the page.
pte_t *
walk(pagetable_t pagetable, uint64 va, int alloc)
{
    800004aa:	7139                	addi	sp,sp,-64
    800004ac:	fc06                	sd	ra,56(sp)
    800004ae:	f822                	sd	s0,48(sp)
    800004b0:	f426                	sd	s1,40(sp)
    800004b2:	f04a                	sd	s2,32(sp)
    800004b4:	ec4e                	sd	s3,24(sp)
    800004b6:	e852                	sd	s4,16(sp)
    800004b8:	e456                	sd	s5,8(sp)
    800004ba:	e05a                	sd	s6,0(sp)
    800004bc:	0080                	addi	s0,sp,64
    800004be:	84aa                	mv	s1,a0
    800004c0:	89ae                	mv	s3,a1
    800004c2:	8ab2                	mv	s5,a2
  if(va >= MAXVA)
    800004c4:	57fd                	li	a5,-1
    800004c6:	83e9                	srli	a5,a5,0x1a
    800004c8:	4a79                	li	s4,30
    panic("walk");

  for(int level = 2; level > 0; level--) {
    800004ca:	4b31                	li	s6,12
  if(va >= MAXVA)
    800004cc:	04b7f263          	bgeu	a5,a1,80000510 <walk+0x66>
    panic("walk");
    800004d0:	00008517          	auipc	a0,0x8
    800004d4:	b8050513          	addi	a0,a0,-1152 # 80008050 <etext+0x50>
    800004d8:	00005097          	auipc	ra,0x5
    800004dc:	790080e7          	jalr	1936(ra) # 80005c68 <panic>
    pte_t *pte = &pagetable[PX(level, va)];
    if(*pte & PTE_V) {
      pagetable = (pagetable_t)PTE2PA(*pte);
    } else {
      if(!alloc || (pagetable = (pde_t*)kalloc()) == 0)
    800004e0:	060a8663          	beqz	s5,8000054c <walk+0xa2>
    800004e4:	00000097          	auipc	ra,0x0
    800004e8:	c34080e7          	jalr	-972(ra) # 80000118 <kalloc>
    800004ec:	84aa                	mv	s1,a0
    800004ee:	c529                	beqz	a0,80000538 <walk+0x8e>
        return 0;
      memset(pagetable, 0, PGSIZE);
    800004f0:	6605                	lui	a2,0x1
    800004f2:	4581                	li	a1,0
    800004f4:	00000097          	auipc	ra,0x0
    800004f8:	cce080e7          	jalr	-818(ra) # 800001c2 <memset>
      *pte = PA2PTE(pagetable) | PTE_V;
    800004fc:	00c4d793          	srli	a5,s1,0xc
    80000500:	07aa                	slli	a5,a5,0xa
    80000502:	0017e793          	ori	a5,a5,1
    80000506:	00f93023          	sd	a5,0(s2)
  for(int level = 2; level > 0; level--) {
    8000050a:	3a5d                	addiw	s4,s4,-9
    8000050c:	036a0063          	beq	s4,s6,8000052c <walk+0x82>
    pte_t *pte = &pagetable[PX(level, va)];
    80000510:	0149d933          	srl	s2,s3,s4
    80000514:	1ff97913          	andi	s2,s2,511
    80000518:	090e                	slli	s2,s2,0x3
    8000051a:	9926                	add	s2,s2,s1
    if(*pte & PTE_V) {
    8000051c:	00093483          	ld	s1,0(s2)
    80000520:	0014f793          	andi	a5,s1,1
    80000524:	dfd5                	beqz	a5,800004e0 <walk+0x36>
      pagetable = (pagetable_t)PTE2PA(*pte);
    80000526:	80a9                	srli	s1,s1,0xa
    80000528:	04b2                	slli	s1,s1,0xc
    8000052a:	b7c5                	j	8000050a <walk+0x60>
    }
  }
  return &pagetable[PX(0, va)];
    8000052c:	00c9d513          	srli	a0,s3,0xc
    80000530:	1ff57513          	andi	a0,a0,511
    80000534:	050e                	slli	a0,a0,0x3
    80000536:	9526                	add	a0,a0,s1
}
    80000538:	70e2                	ld	ra,56(sp)
    8000053a:	7442                	ld	s0,48(sp)
    8000053c:	74a2                	ld	s1,40(sp)
    8000053e:	7902                	ld	s2,32(sp)
    80000540:	69e2                	ld	s3,24(sp)
    80000542:	6a42                	ld	s4,16(sp)
    80000544:	6aa2                	ld	s5,8(sp)
    80000546:	6b02                	ld	s6,0(sp)
    80000548:	6121                	addi	sp,sp,64
    8000054a:	8082                	ret
        return 0;
    8000054c:	4501                	li	a0,0
    8000054e:	b7ed                	j	80000538 <walk+0x8e>

0000000080000550 <walkaddr>:
walkaddr(pagetable_t pagetable, uint64 va)
{
  pte_t *pte;
  uint64 pa;

  if(va >= MAXVA)
    80000550:	57fd                	li	a5,-1
    80000552:	83e9                	srli	a5,a5,0x1a
    80000554:	00b7f463          	bgeu	a5,a1,8000055c <walkaddr+0xc>
    return 0;
    80000558:	4501                	li	a0,0
    return 0;
  if((*pte & PTE_U) == 0)
    return 0;
  pa = PTE2PA(*pte);
  return pa;
}
    8000055a:	8082                	ret
{
    8000055c:	1141                	addi	sp,sp,-16
    8000055e:	e406                	sd	ra,8(sp)
    80000560:	e022                	sd	s0,0(sp)
    80000562:	0800                	addi	s0,sp,16
  pte = walk(pagetable, va, 0);
    80000564:	4601                	li	a2,0
    80000566:	00000097          	auipc	ra,0x0
    8000056a:	f44080e7          	jalr	-188(ra) # 800004aa <walk>
  if(pte == 0)
    8000056e:	c105                	beqz	a0,8000058e <walkaddr+0x3e>
  if((*pte & PTE_V) == 0)
    80000570:	611c                	ld	a5,0(a0)
  if((*pte & PTE_U) == 0)
    80000572:	0117f693          	andi	a3,a5,17
    80000576:	4745                	li	a4,17
    return 0;
    80000578:	4501                	li	a0,0
  if((*pte & PTE_U) == 0)
    8000057a:	00e68663          	beq	a3,a4,80000586 <walkaddr+0x36>
}
    8000057e:	60a2                	ld	ra,8(sp)
    80000580:	6402                	ld	s0,0(sp)
    80000582:	0141                	addi	sp,sp,16
    80000584:	8082                	ret
  pa = PTE2PA(*pte);
    80000586:	00a7d513          	srli	a0,a5,0xa
    8000058a:	0532                	slli	a0,a0,0xc
  return pa;
    8000058c:	bfcd                	j	8000057e <walkaddr+0x2e>
    return 0;
    8000058e:	4501                	li	a0,0
    80000590:	b7fd                	j	8000057e <walkaddr+0x2e>

0000000080000592 <mappages>:
// physical addresses starting at pa. va and size might not
// be page-aligned. Returns 0 on success, -1 if walk() couldn't
// allocate a needed page-table page.
int
mappages(pagetable_t pagetable, uint64 va, uint64 size, uint64 pa, int perm)
{
    80000592:	715d                	addi	sp,sp,-80
    80000594:	e486                	sd	ra,72(sp)
    80000596:	e0a2                	sd	s0,64(sp)
    80000598:	fc26                	sd	s1,56(sp)
    8000059a:	f84a                	sd	s2,48(sp)
    8000059c:	f44e                	sd	s3,40(sp)
    8000059e:	f052                	sd	s4,32(sp)
    800005a0:	ec56                	sd	s5,24(sp)
    800005a2:	e85a                	sd	s6,16(sp)
    800005a4:	e45e                	sd	s7,8(sp)
    800005a6:	0880                	addi	s0,sp,80
  uint64 a, last;
  pte_t *pte;

  if(size == 0)
    800005a8:	c205                	beqz	a2,800005c8 <mappages+0x36>
    800005aa:	8aaa                	mv	s5,a0
    800005ac:	8b3a                	mv	s6,a4
    panic("mappages: size");
  
  a = PGROUNDDOWN(va);
    800005ae:	77fd                	lui	a5,0xfffff
    800005b0:	00f5fa33          	and	s4,a1,a5
  last = PGROUNDDOWN(va + size - 1);
    800005b4:	15fd                	addi	a1,a1,-1
    800005b6:	00c589b3          	add	s3,a1,a2
    800005ba:	00f9f9b3          	and	s3,s3,a5
  a = PGROUNDDOWN(va);
    800005be:	8952                	mv	s2,s4
    800005c0:	41468a33          	sub	s4,a3,s4
    if(*pte & PTE_V)
      panic("mappages: remap");
    *pte = PA2PTE(pa) | perm | PTE_V;
    if(a == last)
      break;
    a += PGSIZE;
    800005c4:	6b85                	lui	s7,0x1
    800005c6:	a015                	j	800005ea <mappages+0x58>
    panic("mappages: size");
    800005c8:	00008517          	auipc	a0,0x8
    800005cc:	a9050513          	addi	a0,a0,-1392 # 80008058 <etext+0x58>
    800005d0:	00005097          	auipc	ra,0x5
    800005d4:	698080e7          	jalr	1688(ra) # 80005c68 <panic>
      panic("mappages: remap");
    800005d8:	00008517          	auipc	a0,0x8
    800005dc:	a9050513          	addi	a0,a0,-1392 # 80008068 <etext+0x68>
    800005e0:	00005097          	auipc	ra,0x5
    800005e4:	688080e7          	jalr	1672(ra) # 80005c68 <panic>
    a += PGSIZE;
    800005e8:	995e                	add	s2,s2,s7
  for(;;){
    800005ea:	012a04b3          	add	s1,s4,s2
    if((pte = walk(pagetable, a, 1)) == 0)
    800005ee:	4605                	li	a2,1
    800005f0:	85ca                	mv	a1,s2
    800005f2:	8556                	mv	a0,s5
    800005f4:	00000097          	auipc	ra,0x0
    800005f8:	eb6080e7          	jalr	-330(ra) # 800004aa <walk>
    800005fc:	cd19                	beqz	a0,8000061a <mappages+0x88>
    if(*pte & PTE_V)
    800005fe:	611c                	ld	a5,0(a0)
    80000600:	8b85                	andi	a5,a5,1
    80000602:	fbf9                	bnez	a5,800005d8 <mappages+0x46>
    *pte = PA2PTE(pa) | perm | PTE_V;
    80000604:	80b1                	srli	s1,s1,0xc
    80000606:	04aa                	slli	s1,s1,0xa
    80000608:	0164e4b3          	or	s1,s1,s6
    8000060c:	0014e493          	ori	s1,s1,1
    80000610:	e104                	sd	s1,0(a0)
    if(a == last)
    80000612:	fd391be3          	bne	s2,s3,800005e8 <mappages+0x56>
    pa += PGSIZE;
  }
  return 0;
    80000616:	4501                	li	a0,0
    80000618:	a011                	j	8000061c <mappages+0x8a>
      return -1;
    8000061a:	557d                	li	a0,-1
}
    8000061c:	60a6                	ld	ra,72(sp)
    8000061e:	6406                	ld	s0,64(sp)
    80000620:	74e2                	ld	s1,56(sp)
    80000622:	7942                	ld	s2,48(sp)
    80000624:	79a2                	ld	s3,40(sp)
    80000626:	7a02                	ld	s4,32(sp)
    80000628:	6ae2                	ld	s5,24(sp)
    8000062a:	6b42                	ld	s6,16(sp)
    8000062c:	6ba2                	ld	s7,8(sp)
    8000062e:	6161                	addi	sp,sp,80
    80000630:	8082                	ret

0000000080000632 <kvmmap>:
{
    80000632:	1141                	addi	sp,sp,-16
    80000634:	e406                	sd	ra,8(sp)
    80000636:	e022                	sd	s0,0(sp)
    80000638:	0800                	addi	s0,sp,16
    8000063a:	87b6                	mv	a5,a3
  if(mappages(kpgtbl, va, sz, pa, perm) != 0)
    8000063c:	86b2                	mv	a3,a2
    8000063e:	863e                	mv	a2,a5
    80000640:	00000097          	auipc	ra,0x0
    80000644:	f52080e7          	jalr	-174(ra) # 80000592 <mappages>
    80000648:	e509                	bnez	a0,80000652 <kvmmap+0x20>
}
    8000064a:	60a2                	ld	ra,8(sp)
    8000064c:	6402                	ld	s0,0(sp)
    8000064e:	0141                	addi	sp,sp,16
    80000650:	8082                	ret
    panic("kvmmap");
    80000652:	00008517          	auipc	a0,0x8
    80000656:	a2650513          	addi	a0,a0,-1498 # 80008078 <etext+0x78>
    8000065a:	00005097          	auipc	ra,0x5
    8000065e:	60e080e7          	jalr	1550(ra) # 80005c68 <panic>

0000000080000662 <kvmmake>:
{
    80000662:	1101                	addi	sp,sp,-32
    80000664:	ec06                	sd	ra,24(sp)
    80000666:	e822                	sd	s0,16(sp)
    80000668:	e426                	sd	s1,8(sp)
    8000066a:	e04a                	sd	s2,0(sp)
    8000066c:	1000                	addi	s0,sp,32
  kpgtbl = (pagetable_t) kalloc();
    8000066e:	00000097          	auipc	ra,0x0
    80000672:	aaa080e7          	jalr	-1366(ra) # 80000118 <kalloc>
    80000676:	84aa                	mv	s1,a0
  memset(kpgtbl, 0, PGSIZE);
    80000678:	6605                	lui	a2,0x1
    8000067a:	4581                	li	a1,0
    8000067c:	00000097          	auipc	ra,0x0
    80000680:	b46080e7          	jalr	-1210(ra) # 800001c2 <memset>
  kvmmap(kpgtbl, UART0, UART0, PGSIZE, PTE_R | PTE_W);
    80000684:	4719                	li	a4,6
    80000686:	6685                	lui	a3,0x1
    80000688:	10000637          	lui	a2,0x10000
    8000068c:	100005b7          	lui	a1,0x10000
    80000690:	8526                	mv	a0,s1
    80000692:	00000097          	auipc	ra,0x0
    80000696:	fa0080e7          	jalr	-96(ra) # 80000632 <kvmmap>
  kvmmap(kpgtbl, VIRTIO0, VIRTIO0, PGSIZE, PTE_R | PTE_W);
    8000069a:	4719                	li	a4,6
    8000069c:	6685                	lui	a3,0x1
    8000069e:	10001637          	lui	a2,0x10001
    800006a2:	100015b7          	lui	a1,0x10001
    800006a6:	8526                	mv	a0,s1
    800006a8:	00000097          	auipc	ra,0x0
    800006ac:	f8a080e7          	jalr	-118(ra) # 80000632 <kvmmap>
  kvmmap(kpgtbl, PLIC, PLIC, 0x400000, PTE_R | PTE_W);
    800006b0:	4719                	li	a4,6
    800006b2:	004006b7          	lui	a3,0x400
    800006b6:	0c000637          	lui	a2,0xc000
    800006ba:	0c0005b7          	lui	a1,0xc000
    800006be:	8526                	mv	a0,s1
    800006c0:	00000097          	auipc	ra,0x0
    800006c4:	f72080e7          	jalr	-142(ra) # 80000632 <kvmmap>
  kvmmap(kpgtbl, KERNBASE, KERNBASE, (uint64)etext-KERNBASE, PTE_R | PTE_X);
    800006c8:	00008917          	auipc	s2,0x8
    800006cc:	93890913          	addi	s2,s2,-1736 # 80008000 <etext>
    800006d0:	4729                	li	a4,10
    800006d2:	80008697          	auipc	a3,0x80008
    800006d6:	92e68693          	addi	a3,a3,-1746 # 8000 <_entry-0x7fff8000>
    800006da:	4605                	li	a2,1
    800006dc:	067e                	slli	a2,a2,0x1f
    800006de:	85b2                	mv	a1,a2
    800006e0:	8526                	mv	a0,s1
    800006e2:	00000097          	auipc	ra,0x0
    800006e6:	f50080e7          	jalr	-176(ra) # 80000632 <kvmmap>
  kvmmap(kpgtbl, (uint64)etext, (uint64)etext, PHYSTOP-(uint64)etext, PTE_R | PTE_W);
    800006ea:	4719                	li	a4,6
    800006ec:	46c5                	li	a3,17
    800006ee:	06ee                	slli	a3,a3,0x1b
    800006f0:	412686b3          	sub	a3,a3,s2
    800006f4:	864a                	mv	a2,s2
    800006f6:	85ca                	mv	a1,s2
    800006f8:	8526                	mv	a0,s1
    800006fa:	00000097          	auipc	ra,0x0
    800006fe:	f38080e7          	jalr	-200(ra) # 80000632 <kvmmap>
  kvmmap(kpgtbl, TRAMPOLINE, (uint64)trampoline, PGSIZE, PTE_R | PTE_X);
    80000702:	4729                	li	a4,10
    80000704:	6685                	lui	a3,0x1
    80000706:	00007617          	auipc	a2,0x7
    8000070a:	8fa60613          	addi	a2,a2,-1798 # 80007000 <_trampoline>
    8000070e:	040005b7          	lui	a1,0x4000
    80000712:	15fd                	addi	a1,a1,-1
    80000714:	05b2                	slli	a1,a1,0xc
    80000716:	8526                	mv	a0,s1
    80000718:	00000097          	auipc	ra,0x0
    8000071c:	f1a080e7          	jalr	-230(ra) # 80000632 <kvmmap>
  proc_mapstacks(kpgtbl);
    80000720:	8526                	mv	a0,s1
    80000722:	00000097          	auipc	ra,0x0
    80000726:	5fe080e7          	jalr	1534(ra) # 80000d20 <proc_mapstacks>
}
    8000072a:	8526                	mv	a0,s1
    8000072c:	60e2                	ld	ra,24(sp)
    8000072e:	6442                	ld	s0,16(sp)
    80000730:	64a2                	ld	s1,8(sp)
    80000732:	6902                	ld	s2,0(sp)
    80000734:	6105                	addi	sp,sp,32
    80000736:	8082                	ret

0000000080000738 <kvminit>:
{
    80000738:	1141                	addi	sp,sp,-16
    8000073a:	e406                	sd	ra,8(sp)
    8000073c:	e022                	sd	s0,0(sp)
    8000073e:	0800                	addi	s0,sp,16
  kernel_pagetable = kvmmake();
    80000740:	00000097          	auipc	ra,0x0
    80000744:	f22080e7          	jalr	-222(ra) # 80000662 <kvmmake>
    80000748:	00009797          	auipc	a5,0x9
    8000074c:	8ca7b023          	sd	a0,-1856(a5) # 80009008 <kernel_pagetable>
}
    80000750:	60a2                	ld	ra,8(sp)
    80000752:	6402                	ld	s0,0(sp)
    80000754:	0141                	addi	sp,sp,16
    80000756:	8082                	ret

0000000080000758 <uvmunmap>:
// Remove npages of mappings starting from va. va must be
// page-aligned. The mappings must exist.
// Optionally free the physical memory.
void
uvmunmap(pagetable_t pagetable, uint64 va, uint64 npages, int do_free)
{
    80000758:	715d                	addi	sp,sp,-80
    8000075a:	e486                	sd	ra,72(sp)
    8000075c:	e0a2                	sd	s0,64(sp)
    8000075e:	fc26                	sd	s1,56(sp)
    80000760:	f84a                	sd	s2,48(sp)
    80000762:	f44e                	sd	s3,40(sp)
    80000764:	f052                	sd	s4,32(sp)
    80000766:	ec56                	sd	s5,24(sp)
    80000768:	e85a                	sd	s6,16(sp)
    8000076a:	e45e                	sd	s7,8(sp)
    8000076c:	0880                	addi	s0,sp,80
  uint64 a;
  pte_t *pte;

  if((va % PGSIZE) != 0)
    8000076e:	03459793          	slli	a5,a1,0x34
    80000772:	e795                	bnez	a5,8000079e <uvmunmap+0x46>
    80000774:	8a2a                	mv	s4,a0
    80000776:	892e                	mv	s2,a1
    80000778:	8ab6                	mv	s5,a3
    panic("uvmunmap: not aligned");

  for(a = va; a < va + npages*PGSIZE; a += PGSIZE){
    8000077a:	0632                	slli	a2,a2,0xc
    8000077c:	00b609b3          	add	s3,a2,a1
    if((pte = walk(pagetable, a, 0)) == 0)
      panic("uvmunmap: walk");
    if((*pte & PTE_V) == 0)
      panic("uvmunmap: not mapped");
    if(PTE_FLAGS(*pte) == PTE_V)
    80000780:	4b85                	li	s7,1
  for(a = va; a < va + npages*PGSIZE; a += PGSIZE){
    80000782:	6b05                	lui	s6,0x1
    80000784:	0735e863          	bltu	a1,s3,800007f4 <uvmunmap+0x9c>
      uint64 pa = PTE2PA(*pte);
      kfree((void*)pa);
    }
    *pte = 0;
  }
}
    80000788:	60a6                	ld	ra,72(sp)
    8000078a:	6406                	ld	s0,64(sp)
    8000078c:	74e2                	ld	s1,56(sp)
    8000078e:	7942                	ld	s2,48(sp)
    80000790:	79a2                	ld	s3,40(sp)
    80000792:	7a02                	ld	s4,32(sp)
    80000794:	6ae2                	ld	s5,24(sp)
    80000796:	6b42                	ld	s6,16(sp)
    80000798:	6ba2                	ld	s7,8(sp)
    8000079a:	6161                	addi	sp,sp,80
    8000079c:	8082                	ret
    panic("uvmunmap: not aligned");
    8000079e:	00008517          	auipc	a0,0x8
    800007a2:	8e250513          	addi	a0,a0,-1822 # 80008080 <etext+0x80>
    800007a6:	00005097          	auipc	ra,0x5
    800007aa:	4c2080e7          	jalr	1218(ra) # 80005c68 <panic>
      panic("uvmunmap: walk");
    800007ae:	00008517          	auipc	a0,0x8
    800007b2:	8ea50513          	addi	a0,a0,-1814 # 80008098 <etext+0x98>
    800007b6:	00005097          	auipc	ra,0x5
    800007ba:	4b2080e7          	jalr	1202(ra) # 80005c68 <panic>
      panic("uvmunmap: not mapped");
    800007be:	00008517          	auipc	a0,0x8
    800007c2:	8ea50513          	addi	a0,a0,-1814 # 800080a8 <etext+0xa8>
    800007c6:	00005097          	auipc	ra,0x5
    800007ca:	4a2080e7          	jalr	1186(ra) # 80005c68 <panic>
      panic("uvmunmap: not a leaf");
    800007ce:	00008517          	auipc	a0,0x8
    800007d2:	8f250513          	addi	a0,a0,-1806 # 800080c0 <etext+0xc0>
    800007d6:	00005097          	auipc	ra,0x5
    800007da:	492080e7          	jalr	1170(ra) # 80005c68 <panic>
      uint64 pa = PTE2PA(*pte);
    800007de:	8129                	srli	a0,a0,0xa
      kfree((void*)pa);
    800007e0:	0532                	slli	a0,a0,0xc
    800007e2:	00000097          	auipc	ra,0x0
    800007e6:	83a080e7          	jalr	-1990(ra) # 8000001c <kfree>
    *pte = 0;
    800007ea:	0004b023          	sd	zero,0(s1)
  for(a = va; a < va + npages*PGSIZE; a += PGSIZE){
    800007ee:	995a                	add	s2,s2,s6
    800007f0:	f9397ce3          	bgeu	s2,s3,80000788 <uvmunmap+0x30>
    if((pte = walk(pagetable, a, 0)) == 0)
    800007f4:	4601                	li	a2,0
    800007f6:	85ca                	mv	a1,s2
    800007f8:	8552                	mv	a0,s4
    800007fa:	00000097          	auipc	ra,0x0
    800007fe:	cb0080e7          	jalr	-848(ra) # 800004aa <walk>
    80000802:	84aa                	mv	s1,a0
    80000804:	d54d                	beqz	a0,800007ae <uvmunmap+0x56>
    if((*pte & PTE_V) == 0)
    80000806:	6108                	ld	a0,0(a0)
    80000808:	00157793          	andi	a5,a0,1
    8000080c:	dbcd                	beqz	a5,800007be <uvmunmap+0x66>
    if(PTE_FLAGS(*pte) == PTE_V)
    8000080e:	3ff57793          	andi	a5,a0,1023
    80000812:	fb778ee3          	beq	a5,s7,800007ce <uvmunmap+0x76>
    if(do_free){
    80000816:	fc0a8ae3          	beqz	s5,800007ea <uvmunmap+0x92>
    8000081a:	b7d1                	j	800007de <uvmunmap+0x86>

000000008000081c <uvmcreate>:

// create an empty user page table.
// returns 0 if out of memory.
pagetable_t
uvmcreate()
{
    8000081c:	1101                	addi	sp,sp,-32
    8000081e:	ec06                	sd	ra,24(sp)
    80000820:	e822                	sd	s0,16(sp)
    80000822:	e426                	sd	s1,8(sp)
    80000824:	1000                	addi	s0,sp,32
  pagetable_t pagetable;
  pagetable = (pagetable_t) kalloc();
    80000826:	00000097          	auipc	ra,0x0
    8000082a:	8f2080e7          	jalr	-1806(ra) # 80000118 <kalloc>
    8000082e:	84aa                	mv	s1,a0
  if(pagetable == 0)
    80000830:	c519                	beqz	a0,8000083e <uvmcreate+0x22>
    return 0;
  memset(pagetable, 0, PGSIZE);
    80000832:	6605                	lui	a2,0x1
    80000834:	4581                	li	a1,0
    80000836:	00000097          	auipc	ra,0x0
    8000083a:	98c080e7          	jalr	-1652(ra) # 800001c2 <memset>
  return pagetable;
}
    8000083e:	8526                	mv	a0,s1
    80000840:	60e2                	ld	ra,24(sp)
    80000842:	6442                	ld	s0,16(sp)
    80000844:	64a2                	ld	s1,8(sp)
    80000846:	6105                	addi	sp,sp,32
    80000848:	8082                	ret

000000008000084a <uvminit>:
// Load the user initcode into address 0 of pagetable,
// for the very first process.
// sz must be less than a page.
void
uvminit(pagetable_t pagetable, uchar *src, uint sz)
{
    8000084a:	7179                	addi	sp,sp,-48
    8000084c:	f406                	sd	ra,40(sp)
    8000084e:	f022                	sd	s0,32(sp)
    80000850:	ec26                	sd	s1,24(sp)
    80000852:	e84a                	sd	s2,16(sp)
    80000854:	e44e                	sd	s3,8(sp)
    80000856:	e052                	sd	s4,0(sp)
    80000858:	1800                	addi	s0,sp,48
  char *mem;

  if(sz >= PGSIZE)
    8000085a:	6785                	lui	a5,0x1
    8000085c:	04f67863          	bgeu	a2,a5,800008ac <uvminit+0x62>
    80000860:	8a2a                	mv	s4,a0
    80000862:	89ae                	mv	s3,a1
    80000864:	84b2                	mv	s1,a2
    panic("inituvm: more than a page");
  mem = kalloc();
    80000866:	00000097          	auipc	ra,0x0
    8000086a:	8b2080e7          	jalr	-1870(ra) # 80000118 <kalloc>
    8000086e:	892a                	mv	s2,a0
  memset(mem, 0, PGSIZE);
    80000870:	6605                	lui	a2,0x1
    80000872:	4581                	li	a1,0
    80000874:	00000097          	auipc	ra,0x0
    80000878:	94e080e7          	jalr	-1714(ra) # 800001c2 <memset>
  mappages(pagetable, 0, PGSIZE, (uint64)mem, PTE_W|PTE_R|PTE_X|PTE_U);
    8000087c:	4779                	li	a4,30
    8000087e:	86ca                	mv	a3,s2
    80000880:	6605                	lui	a2,0x1
    80000882:	4581                	li	a1,0
    80000884:	8552                	mv	a0,s4
    80000886:	00000097          	auipc	ra,0x0
    8000088a:	d0c080e7          	jalr	-756(ra) # 80000592 <mappages>
  memmove(mem, src, sz);
    8000088e:	8626                	mv	a2,s1
    80000890:	85ce                	mv	a1,s3
    80000892:	854a                	mv	a0,s2
    80000894:	00000097          	auipc	ra,0x0
    80000898:	98e080e7          	jalr	-1650(ra) # 80000222 <memmove>
}
    8000089c:	70a2                	ld	ra,40(sp)
    8000089e:	7402                	ld	s0,32(sp)
    800008a0:	64e2                	ld	s1,24(sp)
    800008a2:	6942                	ld	s2,16(sp)
    800008a4:	69a2                	ld	s3,8(sp)
    800008a6:	6a02                	ld	s4,0(sp)
    800008a8:	6145                	addi	sp,sp,48
    800008aa:	8082                	ret
    panic("inituvm: more than a page");
    800008ac:	00008517          	auipc	a0,0x8
    800008b0:	82c50513          	addi	a0,a0,-2004 # 800080d8 <etext+0xd8>
    800008b4:	00005097          	auipc	ra,0x5
    800008b8:	3b4080e7          	jalr	948(ra) # 80005c68 <panic>

00000000800008bc <uvmdealloc>:
// newsz.  oldsz and newsz need not be page-aligned, nor does newsz
// need to be less than oldsz.  oldsz can be larger than the actual
// process size.  Returns the new process size.
uint64
uvmdealloc(pagetable_t pagetable, uint64 oldsz, uint64 newsz)
{
    800008bc:	1101                	addi	sp,sp,-32
    800008be:	ec06                	sd	ra,24(sp)
    800008c0:	e822                	sd	s0,16(sp)
    800008c2:	e426                	sd	s1,8(sp)
    800008c4:	1000                	addi	s0,sp,32
  if(newsz >= oldsz)
    return oldsz;
    800008c6:	84ae                	mv	s1,a1
  if(newsz >= oldsz)
    800008c8:	00b67d63          	bgeu	a2,a1,800008e2 <uvmdealloc+0x26>
    800008cc:	84b2                	mv	s1,a2

  if(PGROUNDUP(newsz) < PGROUNDUP(oldsz)){
    800008ce:	6785                	lui	a5,0x1
    800008d0:	17fd                	addi	a5,a5,-1
    800008d2:	00f60733          	add	a4,a2,a5
    800008d6:	767d                	lui	a2,0xfffff
    800008d8:	8f71                	and	a4,a4,a2
    800008da:	97ae                	add	a5,a5,a1
    800008dc:	8ff1                	and	a5,a5,a2
    800008de:	00f76863          	bltu	a4,a5,800008ee <uvmdealloc+0x32>
    int npages = (PGROUNDUP(oldsz) - PGROUNDUP(newsz)) / PGSIZE;
    uvmunmap(pagetable, PGROUNDUP(newsz), npages, 1);
  }

  return newsz;
}
    800008e2:	8526                	mv	a0,s1
    800008e4:	60e2                	ld	ra,24(sp)
    800008e6:	6442                	ld	s0,16(sp)
    800008e8:	64a2                	ld	s1,8(sp)
    800008ea:	6105                	addi	sp,sp,32
    800008ec:	8082                	ret
    int npages = (PGROUNDUP(oldsz) - PGROUNDUP(newsz)) / PGSIZE;
    800008ee:	8f99                	sub	a5,a5,a4
    800008f0:	83b1                	srli	a5,a5,0xc
    uvmunmap(pagetable, PGROUNDUP(newsz), npages, 1);
    800008f2:	4685                	li	a3,1
    800008f4:	0007861b          	sext.w	a2,a5
    800008f8:	85ba                	mv	a1,a4
    800008fa:	00000097          	auipc	ra,0x0
    800008fe:	e5e080e7          	jalr	-418(ra) # 80000758 <uvmunmap>
    80000902:	b7c5                	j	800008e2 <uvmdealloc+0x26>

0000000080000904 <uvmalloc>:
  if(newsz < oldsz)
    80000904:	0ab66163          	bltu	a2,a1,800009a6 <uvmalloc+0xa2>
{
    80000908:	7139                	addi	sp,sp,-64
    8000090a:	fc06                	sd	ra,56(sp)
    8000090c:	f822                	sd	s0,48(sp)
    8000090e:	f426                	sd	s1,40(sp)
    80000910:	f04a                	sd	s2,32(sp)
    80000912:	ec4e                	sd	s3,24(sp)
    80000914:	e852                	sd	s4,16(sp)
    80000916:	e456                	sd	s5,8(sp)
    80000918:	0080                	addi	s0,sp,64
    8000091a:	8aaa                	mv	s5,a0
    8000091c:	8a32                	mv	s4,a2
  oldsz = PGROUNDUP(oldsz);
    8000091e:	6985                	lui	s3,0x1
    80000920:	19fd                	addi	s3,s3,-1
    80000922:	95ce                	add	a1,a1,s3
    80000924:	79fd                	lui	s3,0xfffff
    80000926:	0135f9b3          	and	s3,a1,s3
  for(a = oldsz; a < newsz; a += PGSIZE){
    8000092a:	08c9f063          	bgeu	s3,a2,800009aa <uvmalloc+0xa6>
    8000092e:	894e                	mv	s2,s3
    mem = kalloc();
    80000930:	fffff097          	auipc	ra,0xfffff
    80000934:	7e8080e7          	jalr	2024(ra) # 80000118 <kalloc>
    80000938:	84aa                	mv	s1,a0
    if(mem == 0){
    8000093a:	c51d                	beqz	a0,80000968 <uvmalloc+0x64>
    memset(mem, 0, PGSIZE);
    8000093c:	6605                	lui	a2,0x1
    8000093e:	4581                	li	a1,0
    80000940:	00000097          	auipc	ra,0x0
    80000944:	882080e7          	jalr	-1918(ra) # 800001c2 <memset>
    if(mappages(pagetable, a, PGSIZE, (uint64)mem, PTE_W|PTE_X|PTE_R|PTE_U) != 0){
    80000948:	4779                	li	a4,30
    8000094a:	86a6                	mv	a3,s1
    8000094c:	6605                	lui	a2,0x1
    8000094e:	85ca                	mv	a1,s2
    80000950:	8556                	mv	a0,s5
    80000952:	00000097          	auipc	ra,0x0
    80000956:	c40080e7          	jalr	-960(ra) # 80000592 <mappages>
    8000095a:	e905                	bnez	a0,8000098a <uvmalloc+0x86>
  for(a = oldsz; a < newsz; a += PGSIZE){
    8000095c:	6785                	lui	a5,0x1
    8000095e:	993e                	add	s2,s2,a5
    80000960:	fd4968e3          	bltu	s2,s4,80000930 <uvmalloc+0x2c>
  return newsz;
    80000964:	8552                	mv	a0,s4
    80000966:	a809                	j	80000978 <uvmalloc+0x74>
      uvmdealloc(pagetable, a, oldsz);
    80000968:	864e                	mv	a2,s3
    8000096a:	85ca                	mv	a1,s2
    8000096c:	8556                	mv	a0,s5
    8000096e:	00000097          	auipc	ra,0x0
    80000972:	f4e080e7          	jalr	-178(ra) # 800008bc <uvmdealloc>
      return 0;
    80000976:	4501                	li	a0,0
}
    80000978:	70e2                	ld	ra,56(sp)
    8000097a:	7442                	ld	s0,48(sp)
    8000097c:	74a2                	ld	s1,40(sp)
    8000097e:	7902                	ld	s2,32(sp)
    80000980:	69e2                	ld	s3,24(sp)
    80000982:	6a42                	ld	s4,16(sp)
    80000984:	6aa2                	ld	s5,8(sp)
    80000986:	6121                	addi	sp,sp,64
    80000988:	8082                	ret
      kfree(mem);
    8000098a:	8526                	mv	a0,s1
    8000098c:	fffff097          	auipc	ra,0xfffff
    80000990:	690080e7          	jalr	1680(ra) # 8000001c <kfree>
      uvmdealloc(pagetable, a, oldsz);
    80000994:	864e                	mv	a2,s3
    80000996:	85ca                	mv	a1,s2
    80000998:	8556                	mv	a0,s5
    8000099a:	00000097          	auipc	ra,0x0
    8000099e:	f22080e7          	jalr	-222(ra) # 800008bc <uvmdealloc>
      return 0;
    800009a2:	4501                	li	a0,0
    800009a4:	bfd1                	j	80000978 <uvmalloc+0x74>
    return oldsz;
    800009a6:	852e                	mv	a0,a1
}
    800009a8:	8082                	ret
  return newsz;
    800009aa:	8532                	mv	a0,a2
    800009ac:	b7f1                	j	80000978 <uvmalloc+0x74>

00000000800009ae <freewalk>:

// Recursively free page-table pages.
// All leaf mappings must already have been removed.
void
freewalk(pagetable_t pagetable)
{
    800009ae:	7179                	addi	sp,sp,-48
    800009b0:	f406                	sd	ra,40(sp)
    800009b2:	f022                	sd	s0,32(sp)
    800009b4:	ec26                	sd	s1,24(sp)
    800009b6:	e84a                	sd	s2,16(sp)
    800009b8:	e44e                	sd	s3,8(sp)
    800009ba:	e052                	sd	s4,0(sp)
    800009bc:	1800                	addi	s0,sp,48
    800009be:	8a2a                	mv	s4,a0
  // there are 2^9 = 512 PTEs in a page table.
  for(int i = 0; i < 512; i++){
    800009c0:	84aa                	mv	s1,a0
    800009c2:	6905                	lui	s2,0x1
    800009c4:	992a                	add	s2,s2,a0
    pte_t pte = pagetable[i];
    if((pte & PTE_V) && (pte & (PTE_R|PTE_W|PTE_X)) == 0){
    800009c6:	4985                	li	s3,1
    800009c8:	a821                	j	800009e0 <freewalk+0x32>
      // this PTE points to a lower-level page table.
      uint64 child = PTE2PA(pte);
    800009ca:	8129                	srli	a0,a0,0xa
      freewalk((pagetable_t)child);
    800009cc:	0532                	slli	a0,a0,0xc
    800009ce:	00000097          	auipc	ra,0x0
    800009d2:	fe0080e7          	jalr	-32(ra) # 800009ae <freewalk>
      pagetable[i] = 0;
    800009d6:	0004b023          	sd	zero,0(s1)
  for(int i = 0; i < 512; i++){
    800009da:	04a1                	addi	s1,s1,8
    800009dc:	03248163          	beq	s1,s2,800009fe <freewalk+0x50>
    pte_t pte = pagetable[i];
    800009e0:	6088                	ld	a0,0(s1)
    if((pte & PTE_V) && (pte & (PTE_R|PTE_W|PTE_X)) == 0){
    800009e2:	00f57793          	andi	a5,a0,15
    800009e6:	ff3782e3          	beq	a5,s3,800009ca <freewalk+0x1c>
    } else if(pte & PTE_V){
    800009ea:	8905                	andi	a0,a0,1
    800009ec:	d57d                	beqz	a0,800009da <freewalk+0x2c>
      panic("freewalk: leaf");
    800009ee:	00007517          	auipc	a0,0x7
    800009f2:	70a50513          	addi	a0,a0,1802 # 800080f8 <etext+0xf8>
    800009f6:	00005097          	auipc	ra,0x5
    800009fa:	272080e7          	jalr	626(ra) # 80005c68 <panic>
    }
  }
  kfree((void*)pagetable);
    800009fe:	8552                	mv	a0,s4
    80000a00:	fffff097          	auipc	ra,0xfffff
    80000a04:	61c080e7          	jalr	1564(ra) # 8000001c <kfree>
}
    80000a08:	70a2                	ld	ra,40(sp)
    80000a0a:	7402                	ld	s0,32(sp)
    80000a0c:	64e2                	ld	s1,24(sp)
    80000a0e:	6942                	ld	s2,16(sp)
    80000a10:	69a2                	ld	s3,8(sp)
    80000a12:	6a02                	ld	s4,0(sp)
    80000a14:	6145                	addi	sp,sp,48
    80000a16:	8082                	ret

0000000080000a18 <uvmfree>:

// Free user memory pages,
// then free page-table pages.
void
uvmfree(pagetable_t pagetable, uint64 sz)
{
    80000a18:	1101                	addi	sp,sp,-32
    80000a1a:	ec06                	sd	ra,24(sp)
    80000a1c:	e822                	sd	s0,16(sp)
    80000a1e:	e426                	sd	s1,8(sp)
    80000a20:	1000                	addi	s0,sp,32
    80000a22:	84aa                	mv	s1,a0
  if(sz > 0)
    80000a24:	e999                	bnez	a1,80000a3a <uvmfree+0x22>
    uvmunmap(pagetable, 0, PGROUNDUP(sz)/PGSIZE, 1);
  freewalk(pagetable);
    80000a26:	8526                	mv	a0,s1
    80000a28:	00000097          	auipc	ra,0x0
    80000a2c:	f86080e7          	jalr	-122(ra) # 800009ae <freewalk>
}
    80000a30:	60e2                	ld	ra,24(sp)
    80000a32:	6442                	ld	s0,16(sp)
    80000a34:	64a2                	ld	s1,8(sp)
    80000a36:	6105                	addi	sp,sp,32
    80000a38:	8082                	ret
    uvmunmap(pagetable, 0, PGROUNDUP(sz)/PGSIZE, 1);
    80000a3a:	6605                	lui	a2,0x1
    80000a3c:	167d                	addi	a2,a2,-1
    80000a3e:	962e                	add	a2,a2,a1
    80000a40:	4685                	li	a3,1
    80000a42:	8231                	srli	a2,a2,0xc
    80000a44:	4581                	li	a1,0
    80000a46:	00000097          	auipc	ra,0x0
    80000a4a:	d12080e7          	jalr	-750(ra) # 80000758 <uvmunmap>
    80000a4e:	bfe1                	j	80000a26 <uvmfree+0xe>

0000000080000a50 <uvmcopy>:
  pte_t *pte;
  uint64 pa, i;
  uint flags;
  char *mem;

  for(i = 0; i < sz; i += PGSIZE){
    80000a50:	c679                	beqz	a2,80000b1e <uvmcopy+0xce>
{
    80000a52:	715d                	addi	sp,sp,-80
    80000a54:	e486                	sd	ra,72(sp)
    80000a56:	e0a2                	sd	s0,64(sp)
    80000a58:	fc26                	sd	s1,56(sp)
    80000a5a:	f84a                	sd	s2,48(sp)
    80000a5c:	f44e                	sd	s3,40(sp)
    80000a5e:	f052                	sd	s4,32(sp)
    80000a60:	ec56                	sd	s5,24(sp)
    80000a62:	e85a                	sd	s6,16(sp)
    80000a64:	e45e                	sd	s7,8(sp)
    80000a66:	0880                	addi	s0,sp,80
    80000a68:	8b2a                	mv	s6,a0
    80000a6a:	8aae                	mv	s5,a1
    80000a6c:	8a32                	mv	s4,a2
  for(i = 0; i < sz; i += PGSIZE){
    80000a6e:	4981                	li	s3,0
    if((pte = walk(old, i, 0)) == 0)
    80000a70:	4601                	li	a2,0
    80000a72:	85ce                	mv	a1,s3
    80000a74:	855a                	mv	a0,s6
    80000a76:	00000097          	auipc	ra,0x0
    80000a7a:	a34080e7          	jalr	-1484(ra) # 800004aa <walk>
    80000a7e:	c531                	beqz	a0,80000aca <uvmcopy+0x7a>
      panic("uvmcopy: pte should exist");
    if((*pte & PTE_V) == 0)
    80000a80:	6118                	ld	a4,0(a0)
    80000a82:	00177793          	andi	a5,a4,1
    80000a86:	cbb1                	beqz	a5,80000ada <uvmcopy+0x8a>
      panic("uvmcopy: page not present");
    pa = PTE2PA(*pte);
    80000a88:	00a75593          	srli	a1,a4,0xa
    80000a8c:	00c59b93          	slli	s7,a1,0xc
    flags = PTE_FLAGS(*pte);
    80000a90:	3ff77493          	andi	s1,a4,1023
    if((mem = kalloc()) == 0)
    80000a94:	fffff097          	auipc	ra,0xfffff
    80000a98:	684080e7          	jalr	1668(ra) # 80000118 <kalloc>
    80000a9c:	892a                	mv	s2,a0
    80000a9e:	c939                	beqz	a0,80000af4 <uvmcopy+0xa4>
      goto err;
    memmove(mem, (char*)pa, PGSIZE);
    80000aa0:	6605                	lui	a2,0x1
    80000aa2:	85de                	mv	a1,s7
    80000aa4:	fffff097          	auipc	ra,0xfffff
    80000aa8:	77e080e7          	jalr	1918(ra) # 80000222 <memmove>
    if(mappages(new, i, PGSIZE, (uint64)mem, flags) != 0){
    80000aac:	8726                	mv	a4,s1
    80000aae:	86ca                	mv	a3,s2
    80000ab0:	6605                	lui	a2,0x1
    80000ab2:	85ce                	mv	a1,s3
    80000ab4:	8556                	mv	a0,s5
    80000ab6:	00000097          	auipc	ra,0x0
    80000aba:	adc080e7          	jalr	-1316(ra) # 80000592 <mappages>
    80000abe:	e515                	bnez	a0,80000aea <uvmcopy+0x9a>
  for(i = 0; i < sz; i += PGSIZE){
    80000ac0:	6785                	lui	a5,0x1
    80000ac2:	99be                	add	s3,s3,a5
    80000ac4:	fb49e6e3          	bltu	s3,s4,80000a70 <uvmcopy+0x20>
    80000ac8:	a081                	j	80000b08 <uvmcopy+0xb8>
      panic("uvmcopy: pte should exist");
    80000aca:	00007517          	auipc	a0,0x7
    80000ace:	63e50513          	addi	a0,a0,1598 # 80008108 <etext+0x108>
    80000ad2:	00005097          	auipc	ra,0x5
    80000ad6:	196080e7          	jalr	406(ra) # 80005c68 <panic>
      panic("uvmcopy: page not present");
    80000ada:	00007517          	auipc	a0,0x7
    80000ade:	64e50513          	addi	a0,a0,1614 # 80008128 <etext+0x128>
    80000ae2:	00005097          	auipc	ra,0x5
    80000ae6:	186080e7          	jalr	390(ra) # 80005c68 <panic>
      kfree(mem);
    80000aea:	854a                	mv	a0,s2
    80000aec:	fffff097          	auipc	ra,0xfffff
    80000af0:	530080e7          	jalr	1328(ra) # 8000001c <kfree>
    }
  }
  return 0;

 err:
  uvmunmap(new, 0, i / PGSIZE, 1);
    80000af4:	4685                	li	a3,1
    80000af6:	00c9d613          	srli	a2,s3,0xc
    80000afa:	4581                	li	a1,0
    80000afc:	8556                	mv	a0,s5
    80000afe:	00000097          	auipc	ra,0x0
    80000b02:	c5a080e7          	jalr	-934(ra) # 80000758 <uvmunmap>
  return -1;
    80000b06:	557d                	li	a0,-1
}
    80000b08:	60a6                	ld	ra,72(sp)
    80000b0a:	6406                	ld	s0,64(sp)
    80000b0c:	74e2                	ld	s1,56(sp)
    80000b0e:	7942                	ld	s2,48(sp)
    80000b10:	79a2                	ld	s3,40(sp)
    80000b12:	7a02                	ld	s4,32(sp)
    80000b14:	6ae2                	ld	s5,24(sp)
    80000b16:	6b42                	ld	s6,16(sp)
    80000b18:	6ba2                	ld	s7,8(sp)
    80000b1a:	6161                	addi	sp,sp,80
    80000b1c:	8082                	ret
  return 0;
    80000b1e:	4501                	li	a0,0
}
    80000b20:	8082                	ret

0000000080000b22 <uvmclear>:

// mark a PTE invalid for user access.
// used by exec for the user stack guard page.
void
uvmclear(pagetable_t pagetable, uint64 va)
{
    80000b22:	1141                	addi	sp,sp,-16
    80000b24:	e406                	sd	ra,8(sp)
    80000b26:	e022                	sd	s0,0(sp)
    80000b28:	0800                	addi	s0,sp,16
  pte_t *pte;
  
  pte = walk(pagetable, va, 0);
    80000b2a:	4601                	li	a2,0
    80000b2c:	00000097          	auipc	ra,0x0
    80000b30:	97e080e7          	jalr	-1666(ra) # 800004aa <walk>
  if(pte == 0)
    80000b34:	c901                	beqz	a0,80000b44 <uvmclear+0x22>
    panic("uvmclear");
  *pte &= ~PTE_U;
    80000b36:	611c                	ld	a5,0(a0)
    80000b38:	9bbd                	andi	a5,a5,-17
    80000b3a:	e11c                	sd	a5,0(a0)
}
    80000b3c:	60a2                	ld	ra,8(sp)
    80000b3e:	6402                	ld	s0,0(sp)
    80000b40:	0141                	addi	sp,sp,16
    80000b42:	8082                	ret
    panic("uvmclear");
    80000b44:	00007517          	auipc	a0,0x7
    80000b48:	60450513          	addi	a0,a0,1540 # 80008148 <etext+0x148>
    80000b4c:	00005097          	auipc	ra,0x5
    80000b50:	11c080e7          	jalr	284(ra) # 80005c68 <panic>

0000000080000b54 <copyout>:
int
copyout(pagetable_t pagetable, uint64 dstva, char *src, uint64 len)
{
  uint64 n, va0, pa0;

  while(len > 0){
    80000b54:	c6bd                	beqz	a3,80000bc2 <copyout+0x6e>
{
    80000b56:	715d                	addi	sp,sp,-80
    80000b58:	e486                	sd	ra,72(sp)
    80000b5a:	e0a2                	sd	s0,64(sp)
    80000b5c:	fc26                	sd	s1,56(sp)
    80000b5e:	f84a                	sd	s2,48(sp)
    80000b60:	f44e                	sd	s3,40(sp)
    80000b62:	f052                	sd	s4,32(sp)
    80000b64:	ec56                	sd	s5,24(sp)
    80000b66:	e85a                	sd	s6,16(sp)
    80000b68:	e45e                	sd	s7,8(sp)
    80000b6a:	e062                	sd	s8,0(sp)
    80000b6c:	0880                	addi	s0,sp,80
    80000b6e:	8b2a                	mv	s6,a0
    80000b70:	8c2e                	mv	s8,a1
    80000b72:	8a32                	mv	s4,a2
    80000b74:	89b6                	mv	s3,a3
    va0 = PGROUNDDOWN(dstva);
    80000b76:	7bfd                	lui	s7,0xfffff
    pa0 = walkaddr(pagetable, va0);
    if(pa0 == 0)
      return -1;
    n = PGSIZE - (dstva - va0);
    80000b78:	6a85                	lui	s5,0x1
    80000b7a:	a015                	j	80000b9e <copyout+0x4a>
    if(n > len)
      n = len;
    memmove((void *)(pa0 + (dstva - va0)), src, n);
    80000b7c:	9562                	add	a0,a0,s8
    80000b7e:	0004861b          	sext.w	a2,s1
    80000b82:	85d2                	mv	a1,s4
    80000b84:	41250533          	sub	a0,a0,s2
    80000b88:	fffff097          	auipc	ra,0xfffff
    80000b8c:	69a080e7          	jalr	1690(ra) # 80000222 <memmove>

    len -= n;
    80000b90:	409989b3          	sub	s3,s3,s1
    src += n;
    80000b94:	9a26                	add	s4,s4,s1
    dstva = va0 + PGSIZE;
    80000b96:	01590c33          	add	s8,s2,s5
  while(len > 0){
    80000b9a:	02098263          	beqz	s3,80000bbe <copyout+0x6a>
    va0 = PGROUNDDOWN(dstva);
    80000b9e:	017c7933          	and	s2,s8,s7
    pa0 = walkaddr(pagetable, va0);
    80000ba2:	85ca                	mv	a1,s2
    80000ba4:	855a                	mv	a0,s6
    80000ba6:	00000097          	auipc	ra,0x0
    80000baa:	9aa080e7          	jalr	-1622(ra) # 80000550 <walkaddr>
    if(pa0 == 0)
    80000bae:	cd01                	beqz	a0,80000bc6 <copyout+0x72>
    n = PGSIZE - (dstva - va0);
    80000bb0:	418904b3          	sub	s1,s2,s8
    80000bb4:	94d6                	add	s1,s1,s5
    if(n > len)
    80000bb6:	fc99f3e3          	bgeu	s3,s1,80000b7c <copyout+0x28>
    80000bba:	84ce                	mv	s1,s3
    80000bbc:	b7c1                	j	80000b7c <copyout+0x28>
  }
  return 0;
    80000bbe:	4501                	li	a0,0
    80000bc0:	a021                	j	80000bc8 <copyout+0x74>
    80000bc2:	4501                	li	a0,0
}
    80000bc4:	8082                	ret
      return -1;
    80000bc6:	557d                	li	a0,-1
}
    80000bc8:	60a6                	ld	ra,72(sp)
    80000bca:	6406                	ld	s0,64(sp)
    80000bcc:	74e2                	ld	s1,56(sp)
    80000bce:	7942                	ld	s2,48(sp)
    80000bd0:	79a2                	ld	s3,40(sp)
    80000bd2:	7a02                	ld	s4,32(sp)
    80000bd4:	6ae2                	ld	s5,24(sp)
    80000bd6:	6b42                	ld	s6,16(sp)
    80000bd8:	6ba2                	ld	s7,8(sp)
    80000bda:	6c02                	ld	s8,0(sp)
    80000bdc:	6161                	addi	sp,sp,80
    80000bde:	8082                	ret

0000000080000be0 <copyin>:
int
copyin(pagetable_t pagetable, char *dst, uint64 srcva, uint64 len)
{
  uint64 n, va0, pa0;

  while(len > 0){
    80000be0:	c6bd                	beqz	a3,80000c4e <copyin+0x6e>
{
    80000be2:	715d                	addi	sp,sp,-80
    80000be4:	e486                	sd	ra,72(sp)
    80000be6:	e0a2                	sd	s0,64(sp)
    80000be8:	fc26                	sd	s1,56(sp)
    80000bea:	f84a                	sd	s2,48(sp)
    80000bec:	f44e                	sd	s3,40(sp)
    80000bee:	f052                	sd	s4,32(sp)
    80000bf0:	ec56                	sd	s5,24(sp)
    80000bf2:	e85a                	sd	s6,16(sp)
    80000bf4:	e45e                	sd	s7,8(sp)
    80000bf6:	e062                	sd	s8,0(sp)
    80000bf8:	0880                	addi	s0,sp,80
    80000bfa:	8b2a                	mv	s6,a0
    80000bfc:	8a2e                	mv	s4,a1
    80000bfe:	8c32                	mv	s8,a2
    80000c00:	89b6                	mv	s3,a3
    va0 = PGROUNDDOWN(srcva);
    80000c02:	7bfd                	lui	s7,0xfffff
    pa0 = walkaddr(pagetable, va0);
    if(pa0 == 0)
      return -1;
    n = PGSIZE - (srcva - va0);
    80000c04:	6a85                	lui	s5,0x1
    80000c06:	a015                	j	80000c2a <copyin+0x4a>
    if(n > len)
      n = len;
    memmove(dst, (void *)(pa0 + (srcva - va0)), n);
    80000c08:	9562                	add	a0,a0,s8
    80000c0a:	0004861b          	sext.w	a2,s1
    80000c0e:	412505b3          	sub	a1,a0,s2
    80000c12:	8552                	mv	a0,s4
    80000c14:	fffff097          	auipc	ra,0xfffff
    80000c18:	60e080e7          	jalr	1550(ra) # 80000222 <memmove>

    len -= n;
    80000c1c:	409989b3          	sub	s3,s3,s1
    dst += n;
    80000c20:	9a26                	add	s4,s4,s1
    srcva = va0 + PGSIZE;
    80000c22:	01590c33          	add	s8,s2,s5
  while(len > 0){
    80000c26:	02098263          	beqz	s3,80000c4a <copyin+0x6a>
    va0 = PGROUNDDOWN(srcva);
    80000c2a:	017c7933          	and	s2,s8,s7
    pa0 = walkaddr(pagetable, va0);
    80000c2e:	85ca                	mv	a1,s2
    80000c30:	855a                	mv	a0,s6
    80000c32:	00000097          	auipc	ra,0x0
    80000c36:	91e080e7          	jalr	-1762(ra) # 80000550 <walkaddr>
    if(pa0 == 0)
    80000c3a:	cd01                	beqz	a0,80000c52 <copyin+0x72>
    n = PGSIZE - (srcva - va0);
    80000c3c:	418904b3          	sub	s1,s2,s8
    80000c40:	94d6                	add	s1,s1,s5
    if(n > len)
    80000c42:	fc99f3e3          	bgeu	s3,s1,80000c08 <copyin+0x28>
    80000c46:	84ce                	mv	s1,s3
    80000c48:	b7c1                	j	80000c08 <copyin+0x28>
  }
  return 0;
    80000c4a:	4501                	li	a0,0
    80000c4c:	a021                	j	80000c54 <copyin+0x74>
    80000c4e:	4501                	li	a0,0
}
    80000c50:	8082                	ret
      return -1;
    80000c52:	557d                	li	a0,-1
}
    80000c54:	60a6                	ld	ra,72(sp)
    80000c56:	6406                	ld	s0,64(sp)
    80000c58:	74e2                	ld	s1,56(sp)
    80000c5a:	7942                	ld	s2,48(sp)
    80000c5c:	79a2                	ld	s3,40(sp)
    80000c5e:	7a02                	ld	s4,32(sp)
    80000c60:	6ae2                	ld	s5,24(sp)
    80000c62:	6b42                	ld	s6,16(sp)
    80000c64:	6ba2                	ld	s7,8(sp)
    80000c66:	6c02                	ld	s8,0(sp)
    80000c68:	6161                	addi	sp,sp,80
    80000c6a:	8082                	ret

0000000080000c6c <copyinstr>:
copyinstr(pagetable_t pagetable, char *dst, uint64 srcva, uint64 max)
{
  uint64 n, va0, pa0;
  int got_null = 0;

  while(got_null == 0 && max > 0){
    80000c6c:	c6c5                	beqz	a3,80000d14 <copyinstr+0xa8>
{
    80000c6e:	715d                	addi	sp,sp,-80
    80000c70:	e486                	sd	ra,72(sp)
    80000c72:	e0a2                	sd	s0,64(sp)
    80000c74:	fc26                	sd	s1,56(sp)
    80000c76:	f84a                	sd	s2,48(sp)
    80000c78:	f44e                	sd	s3,40(sp)
    80000c7a:	f052                	sd	s4,32(sp)
    80000c7c:	ec56                	sd	s5,24(sp)
    80000c7e:	e85a                	sd	s6,16(sp)
    80000c80:	e45e                	sd	s7,8(sp)
    80000c82:	0880                	addi	s0,sp,80
    80000c84:	8a2a                	mv	s4,a0
    80000c86:	8b2e                	mv	s6,a1
    80000c88:	8bb2                	mv	s7,a2
    80000c8a:	84b6                	mv	s1,a3
    va0 = PGROUNDDOWN(srcva);
    80000c8c:	7afd                	lui	s5,0xfffff
    pa0 = walkaddr(pagetable, va0);
    if(pa0 == 0)
      return -1;
    n = PGSIZE - (srcva - va0);
    80000c8e:	6985                	lui	s3,0x1
    80000c90:	a035                	j	80000cbc <copyinstr+0x50>
      n = max;

    char *p = (char *) (pa0 + (srcva - va0));
    while(n > 0){
      if(*p == '\0'){
        *dst = '\0';
    80000c92:	00078023          	sb	zero,0(a5) # 1000 <_entry-0x7ffff000>
    80000c96:	4785                	li	a5,1
      dst++;
    }

    srcva = va0 + PGSIZE;
  }
  if(got_null){
    80000c98:	0017b793          	seqz	a5,a5
    80000c9c:	40f00533          	neg	a0,a5
    return 0;
  } else {
    return -1;
  }
}
    80000ca0:	60a6                	ld	ra,72(sp)
    80000ca2:	6406                	ld	s0,64(sp)
    80000ca4:	74e2                	ld	s1,56(sp)
    80000ca6:	7942                	ld	s2,48(sp)
    80000ca8:	79a2                	ld	s3,40(sp)
    80000caa:	7a02                	ld	s4,32(sp)
    80000cac:	6ae2                	ld	s5,24(sp)
    80000cae:	6b42                	ld	s6,16(sp)
    80000cb0:	6ba2                	ld	s7,8(sp)
    80000cb2:	6161                	addi	sp,sp,80
    80000cb4:	8082                	ret
    srcva = va0 + PGSIZE;
    80000cb6:	01390bb3          	add	s7,s2,s3
  while(got_null == 0 && max > 0){
    80000cba:	c8a9                	beqz	s1,80000d0c <copyinstr+0xa0>
    va0 = PGROUNDDOWN(srcva);
    80000cbc:	015bf933          	and	s2,s7,s5
    pa0 = walkaddr(pagetable, va0);
    80000cc0:	85ca                	mv	a1,s2
    80000cc2:	8552                	mv	a0,s4
    80000cc4:	00000097          	auipc	ra,0x0
    80000cc8:	88c080e7          	jalr	-1908(ra) # 80000550 <walkaddr>
    if(pa0 == 0)
    80000ccc:	c131                	beqz	a0,80000d10 <copyinstr+0xa4>
    n = PGSIZE - (srcva - va0);
    80000cce:	41790833          	sub	a6,s2,s7
    80000cd2:	984e                	add	a6,a6,s3
    if(n > max)
    80000cd4:	0104f363          	bgeu	s1,a6,80000cda <copyinstr+0x6e>
    80000cd8:	8826                	mv	a6,s1
    char *p = (char *) (pa0 + (srcva - va0));
    80000cda:	955e                	add	a0,a0,s7
    80000cdc:	41250533          	sub	a0,a0,s2
    while(n > 0){
    80000ce0:	fc080be3          	beqz	a6,80000cb6 <copyinstr+0x4a>
    80000ce4:	985a                	add	a6,a6,s6
    80000ce6:	87da                	mv	a5,s6
      if(*p == '\0'){
    80000ce8:	41650633          	sub	a2,a0,s6
    80000cec:	14fd                	addi	s1,s1,-1
    80000cee:	9b26                	add	s6,s6,s1
    80000cf0:	00f60733          	add	a4,a2,a5
    80000cf4:	00074703          	lbu	a4,0(a4)
    80000cf8:	df49                	beqz	a4,80000c92 <copyinstr+0x26>
        *dst = *p;
    80000cfa:	00e78023          	sb	a4,0(a5)
      --max;
    80000cfe:	40fb04b3          	sub	s1,s6,a5
      dst++;
    80000d02:	0785                	addi	a5,a5,1
    while(n > 0){
    80000d04:	ff0796e3          	bne	a5,a6,80000cf0 <copyinstr+0x84>
      dst++;
    80000d08:	8b42                	mv	s6,a6
    80000d0a:	b775                	j	80000cb6 <copyinstr+0x4a>
    80000d0c:	4781                	li	a5,0
    80000d0e:	b769                	j	80000c98 <copyinstr+0x2c>
      return -1;
    80000d10:	557d                	li	a0,-1
    80000d12:	b779                	j	80000ca0 <copyinstr+0x34>
  int got_null = 0;
    80000d14:	4781                	li	a5,0
  if(got_null){
    80000d16:	0017b793          	seqz	a5,a5
    80000d1a:	40f00533          	neg	a0,a5
}
    80000d1e:	8082                	ret

0000000080000d20 <proc_mapstacks>:

// Allocate a page for each process's kernel stack.
// Map it high in memory, followed by an invalid
// guard page.
void
proc_mapstacks(pagetable_t kpgtbl) {
    80000d20:	7139                	addi	sp,sp,-64
    80000d22:	fc06                	sd	ra,56(sp)
    80000d24:	f822                	sd	s0,48(sp)
    80000d26:	f426                	sd	s1,40(sp)
    80000d28:	f04a                	sd	s2,32(sp)
    80000d2a:	ec4e                	sd	s3,24(sp)
    80000d2c:	e852                	sd	s4,16(sp)
    80000d2e:	e456                	sd	s5,8(sp)
    80000d30:	e05a                	sd	s6,0(sp)
    80000d32:	0080                	addi	s0,sp,64
    80000d34:	89aa                	mv	s3,a0
  struct proc *p;
  
  for(p = proc; p < &proc[NPROC]; p++) {
    80000d36:	00008497          	auipc	s1,0x8
    80000d3a:	74a48493          	addi	s1,s1,1866 # 80009480 <proc>
    char *pa = kalloc();
    if(pa == 0)
      panic("kalloc");
    uint64 va = KSTACK((int) (p - proc));
    80000d3e:	8b26                	mv	s6,s1
    80000d40:	00007a97          	auipc	s5,0x7
    80000d44:	2c0a8a93          	addi	s5,s5,704 # 80008000 <etext>
    80000d48:	04000937          	lui	s2,0x4000
    80000d4c:	197d                	addi	s2,s2,-1
    80000d4e:	0932                	slli	s2,s2,0xc
  for(p = proc; p < &proc[NPROC]; p++) {
    80000d50:	0000ea17          	auipc	s4,0xe
    80000d54:	330a0a13          	addi	s4,s4,816 # 8000f080 <tickslock>
    char *pa = kalloc();
    80000d58:	fffff097          	auipc	ra,0xfffff
    80000d5c:	3c0080e7          	jalr	960(ra) # 80000118 <kalloc>
    80000d60:	862a                	mv	a2,a0
    if(pa == 0)
    80000d62:	c131                	beqz	a0,80000da6 <proc_mapstacks+0x86>
    uint64 va = KSTACK((int) (p - proc));
    80000d64:	416485b3          	sub	a1,s1,s6
    80000d68:	8591                	srai	a1,a1,0x4
    80000d6a:	000ab783          	ld	a5,0(s5)
    80000d6e:	02f585b3          	mul	a1,a1,a5
    80000d72:	2585                	addiw	a1,a1,1
    80000d74:	00d5959b          	slliw	a1,a1,0xd
    kvmmap(kpgtbl, va, (uint64)pa, PGSIZE, PTE_R | PTE_W);
    80000d78:	4719                	li	a4,6
    80000d7a:	6685                	lui	a3,0x1
    80000d7c:	40b905b3          	sub	a1,s2,a1
    80000d80:	854e                	mv	a0,s3
    80000d82:	00000097          	auipc	ra,0x0
    80000d86:	8b0080e7          	jalr	-1872(ra) # 80000632 <kvmmap>
  for(p = proc; p < &proc[NPROC]; p++) {
    80000d8a:	17048493          	addi	s1,s1,368
    80000d8e:	fd4495e3          	bne	s1,s4,80000d58 <proc_mapstacks+0x38>
  }
}
    80000d92:	70e2                	ld	ra,56(sp)
    80000d94:	7442                	ld	s0,48(sp)
    80000d96:	74a2                	ld	s1,40(sp)
    80000d98:	7902                	ld	s2,32(sp)
    80000d9a:	69e2                	ld	s3,24(sp)
    80000d9c:	6a42                	ld	s4,16(sp)
    80000d9e:	6aa2                	ld	s5,8(sp)
    80000da0:	6b02                	ld	s6,0(sp)
    80000da2:	6121                	addi	sp,sp,64
    80000da4:	8082                	ret
      panic("kalloc");
    80000da6:	00007517          	auipc	a0,0x7
    80000daa:	3b250513          	addi	a0,a0,946 # 80008158 <etext+0x158>
    80000dae:	00005097          	auipc	ra,0x5
    80000db2:	eba080e7          	jalr	-326(ra) # 80005c68 <panic>

0000000080000db6 <procinit>:

// initialize the proc table at boot time.
void
procinit(void)
{
    80000db6:	7139                	addi	sp,sp,-64
    80000db8:	fc06                	sd	ra,56(sp)
    80000dba:	f822                	sd	s0,48(sp)
    80000dbc:	f426                	sd	s1,40(sp)
    80000dbe:	f04a                	sd	s2,32(sp)
    80000dc0:	ec4e                	sd	s3,24(sp)
    80000dc2:	e852                	sd	s4,16(sp)
    80000dc4:	e456                	sd	s5,8(sp)
    80000dc6:	e05a                	sd	s6,0(sp)
    80000dc8:	0080                	addi	s0,sp,64
  struct proc *p;
  
  initlock(&pid_lock, "nextpid");
    80000dca:	00007597          	auipc	a1,0x7
    80000dce:	39658593          	addi	a1,a1,918 # 80008160 <etext+0x160>
    80000dd2:	00008517          	auipc	a0,0x8
    80000dd6:	27e50513          	addi	a0,a0,638 # 80009050 <pid_lock>
    80000dda:	00005097          	auipc	ra,0x5
    80000dde:	348080e7          	jalr	840(ra) # 80006122 <initlock>
  initlock(&wait_lock, "wait_lock");
    80000de2:	00007597          	auipc	a1,0x7
    80000de6:	38658593          	addi	a1,a1,902 # 80008168 <etext+0x168>
    80000dea:	00008517          	auipc	a0,0x8
    80000dee:	27e50513          	addi	a0,a0,638 # 80009068 <wait_lock>
    80000df2:	00005097          	auipc	ra,0x5
    80000df6:	330080e7          	jalr	816(ra) # 80006122 <initlock>
  for(p = proc; p < &proc[NPROC]; p++) {
    80000dfa:	00008497          	auipc	s1,0x8
    80000dfe:	68648493          	addi	s1,s1,1670 # 80009480 <proc>
      initlock(&p->lock, "proc");
    80000e02:	00007b17          	auipc	s6,0x7
    80000e06:	376b0b13          	addi	s6,s6,886 # 80008178 <etext+0x178>
      p->kstack = KSTACK((int) (p - proc));
    80000e0a:	8aa6                	mv	s5,s1
    80000e0c:	00007a17          	auipc	s4,0x7
    80000e10:	1f4a0a13          	addi	s4,s4,500 # 80008000 <etext>
    80000e14:	04000937          	lui	s2,0x4000
    80000e18:	197d                	addi	s2,s2,-1
    80000e1a:	0932                	slli	s2,s2,0xc
  for(p = proc; p < &proc[NPROC]; p++) {
    80000e1c:	0000e997          	auipc	s3,0xe
    80000e20:	26498993          	addi	s3,s3,612 # 8000f080 <tickslock>
      initlock(&p->lock, "proc");
    80000e24:	85da                	mv	a1,s6
    80000e26:	8526                	mv	a0,s1
    80000e28:	00005097          	auipc	ra,0x5
    80000e2c:	2fa080e7          	jalr	762(ra) # 80006122 <initlock>
      p->kstack = KSTACK((int) (p - proc));
    80000e30:	415487b3          	sub	a5,s1,s5
    80000e34:	8791                	srai	a5,a5,0x4
    80000e36:	000a3703          	ld	a4,0(s4)
    80000e3a:	02e787b3          	mul	a5,a5,a4
    80000e3e:	2785                	addiw	a5,a5,1
    80000e40:	00d7979b          	slliw	a5,a5,0xd
    80000e44:	40f907b3          	sub	a5,s2,a5
    80000e48:	e0bc                	sd	a5,64(s1)
  for(p = proc; p < &proc[NPROC]; p++) {
    80000e4a:	17048493          	addi	s1,s1,368
    80000e4e:	fd349be3          	bne	s1,s3,80000e24 <procinit+0x6e>
  }
}
    80000e52:	70e2                	ld	ra,56(sp)
    80000e54:	7442                	ld	s0,48(sp)
    80000e56:	74a2                	ld	s1,40(sp)
    80000e58:	7902                	ld	s2,32(sp)
    80000e5a:	69e2                	ld	s3,24(sp)
    80000e5c:	6a42                	ld	s4,16(sp)
    80000e5e:	6aa2                	ld	s5,8(sp)
    80000e60:	6b02                	ld	s6,0(sp)
    80000e62:	6121                	addi	sp,sp,64
    80000e64:	8082                	ret

0000000080000e66 <cpuid>:
// Must be called with interrupts disabled,
// to prevent race with process being moved
// to a different CPU.
int
cpuid()
{
    80000e66:	1141                	addi	sp,sp,-16
    80000e68:	e422                	sd	s0,8(sp)
    80000e6a:	0800                	addi	s0,sp,16
// read and write tp, the thread pointer, which holds
    80000e6c:	8512                	mv	a0,tp
  int id = r_tp();
  return id;
}
    80000e6e:	2501                	sext.w	a0,a0
    80000e70:	6422                	ld	s0,8(sp)
    80000e72:	0141                	addi	sp,sp,16
    80000e74:	8082                	ret

0000000080000e76 <mycpu>:

// Return this CPU's cpu struct.
// Interrupts must be disabled.
struct cpu*
mycpu(void) {
    80000e76:	1141                	addi	sp,sp,-16
    80000e78:	e422                	sd	s0,8(sp)
    80000e7a:	0800                	addi	s0,sp,16
    80000e7c:	8792                	mv	a5,tp
  int id = cpuid();
  struct cpu *c = &cpus[id];
    80000e7e:	2781                	sext.w	a5,a5
    80000e80:	079e                	slli	a5,a5,0x7
  return c;
}
    80000e82:	00008517          	auipc	a0,0x8
    80000e86:	1fe50513          	addi	a0,a0,510 # 80009080 <cpus>
    80000e8a:	953e                	add	a0,a0,a5
    80000e8c:	6422                	ld	s0,8(sp)
    80000e8e:	0141                	addi	sp,sp,16
    80000e90:	8082                	ret

0000000080000e92 <myproc>:

// Return the current struct proc *, or zero if none.
struct proc*
myproc(void) {
    80000e92:	1101                	addi	sp,sp,-32
    80000e94:	ec06                	sd	ra,24(sp)
    80000e96:	e822                	sd	s0,16(sp)
    80000e98:	e426                	sd	s1,8(sp)
    80000e9a:	1000                	addi	s0,sp,32
  push_off();
    80000e9c:	00005097          	auipc	ra,0x5
    80000ea0:	2ca080e7          	jalr	714(ra) # 80006166 <push_off>
    80000ea4:	8792                	mv	a5,tp
  struct cpu *c = mycpu();
  struct proc *p = c->proc;
    80000ea6:	2781                	sext.w	a5,a5
    80000ea8:	079e                	slli	a5,a5,0x7
    80000eaa:	00008717          	auipc	a4,0x8
    80000eae:	1a670713          	addi	a4,a4,422 # 80009050 <pid_lock>
    80000eb2:	97ba                	add	a5,a5,a4
    80000eb4:	7b84                	ld	s1,48(a5)
  pop_off();
    80000eb6:	00005097          	auipc	ra,0x5
    80000eba:	350080e7          	jalr	848(ra) # 80006206 <pop_off>
  return p;
}
    80000ebe:	8526                	mv	a0,s1
    80000ec0:	60e2                	ld	ra,24(sp)
    80000ec2:	6442                	ld	s0,16(sp)
    80000ec4:	64a2                	ld	s1,8(sp)
    80000ec6:	6105                	addi	sp,sp,32
    80000ec8:	8082                	ret

0000000080000eca <forkret>:
}

// A fork child's very first scheduling by scheduler()
// will swtch to forkret.
void
forkret(void)
    80000eca:	1141                	addi	sp,sp,-16
    80000ecc:	e406                	sd	ra,8(sp)
    80000ece:	e022                	sd	s0,0(sp)
    80000ed0:	0800                	addi	s0,sp,16
{
  static int first = 1;

  // Still holding p->lock from scheduler.
    80000ed2:	00000097          	auipc	ra,0x0
    80000ed6:	fc0080e7          	jalr	-64(ra) # 80000e92 <myproc>
    80000eda:	00005097          	auipc	ra,0x5
    80000ede:	38c080e7          	jalr	908(ra) # 80006266 <release>
  release(&myproc()->lock);

    80000ee2:	00008797          	auipc	a5,0x8
    80000ee6:	abe7a783          	lw	a5,-1346(a5) # 800089a0 <first.1678>
    80000eea:	eb89                	bnez	a5,80000efc <forkret+0x32>
    // regular process (e.g., because it calls sleep), and thus cannot
    // be run from main().
    first = 0;
    fsinit(ROOTDEV);
  }

    80000eec:	00001097          	auipc	ra,0x1
    80000ef0:	c40080e7          	jalr	-960(ra) # 80001b2c <usertrapret>
  usertrapret();
    80000ef4:	60a2                	ld	ra,8(sp)
    80000ef6:	6402                	ld	s0,0(sp)
    80000ef8:	0141                	addi	sp,sp,16
    80000efa:	8082                	ret
    // be run from main().
    80000efc:	00008797          	auipc	a5,0x8
    80000f00:	aa07a223          	sw	zero,-1372(a5) # 800089a0 <first.1678>
    first = 0;
    80000f04:	4505                	li	a0,1
    80000f06:	00002097          	auipc	ra,0x2
    80000f0a:	a3e080e7          	jalr	-1474(ra) # 80002944 <fsinit>
    80000f0e:	bff9                	j	80000eec <forkret+0x22>

0000000080000f10 <allocpid>:
allocpid() {
    80000f10:	1101                	addi	sp,sp,-32
    80000f12:	ec06                	sd	ra,24(sp)
    80000f14:	e822                	sd	s0,16(sp)
    80000f16:	e426                	sd	s1,8(sp)
    80000f18:	e04a                	sd	s2,0(sp)
    80000f1a:	1000                	addi	s0,sp,32
  acquire(&pid_lock);
    80000f1c:	00008917          	auipc	s2,0x8
    80000f20:	13490913          	addi	s2,s2,308 # 80009050 <pid_lock>
    80000f24:	854a                	mv	a0,s2
    80000f26:	00005097          	auipc	ra,0x5
    80000f2a:	28c080e7          	jalr	652(ra) # 800061b2 <acquire>
  pid = nextpid;
    80000f2e:	00008797          	auipc	a5,0x8
    80000f32:	a7678793          	addi	a5,a5,-1418 # 800089a4 <nextpid>
    80000f36:	4384                	lw	s1,0(a5)
  nextpid = nextpid + 1;
    80000f38:	0014871b          	addiw	a4,s1,1
    80000f3c:	c398                	sw	a4,0(a5)
  release(&pid_lock);
    80000f3e:	854a                	mv	a0,s2
    80000f40:	00005097          	auipc	ra,0x5
    80000f44:	326080e7          	jalr	806(ra) # 80006266 <release>
}
    80000f48:	8526                	mv	a0,s1
    80000f4a:	60e2                	ld	ra,24(sp)
    80000f4c:	6442                	ld	s0,16(sp)
    80000f4e:	64a2                	ld	s1,8(sp)
    80000f50:	6902                	ld	s2,0(sp)
    80000f52:	6105                	addi	sp,sp,32
    80000f54:	8082                	ret

0000000080000f56 <proc_pagetable>:
// Create a user page table for a given process,
    80000f56:	1101                	addi	sp,sp,-32
    80000f58:	ec06                	sd	ra,24(sp)
    80000f5a:	e822                	sd	s0,16(sp)
    80000f5c:	e426                	sd	s1,8(sp)
    80000f5e:	e04a                	sd	s2,0(sp)
    80000f60:	1000                	addi	s0,sp,32
    80000f62:	892a                	mv	s2,a0
{
    80000f64:	00000097          	auipc	ra,0x0
    80000f68:	8b8080e7          	jalr	-1864(ra) # 8000081c <uvmcreate>
    80000f6c:	84aa                	mv	s1,a0
  pagetable_t pagetable;
    80000f6e:	c121                	beqz	a0,80000fae <proc_pagetable+0x58>
  // map the trampoline code (for system call return)
    80000f70:	4729                	li	a4,10
    80000f72:	00006697          	auipc	a3,0x6
    80000f76:	08e68693          	addi	a3,a3,142 # 80007000 <_trampoline>
    80000f7a:	6605                	lui	a2,0x1
    80000f7c:	040005b7          	lui	a1,0x4000
    80000f80:	15fd                	addi	a1,a1,-1
    80000f82:	05b2                	slli	a1,a1,0xc
    80000f84:	fffff097          	auipc	ra,0xfffff
    80000f88:	60e080e7          	jalr	1550(ra) # 80000592 <mappages>
    80000f8c:	02054863          	bltz	a0,80000fbc <proc_pagetable+0x66>
    return 0;
    80000f90:	4719                	li	a4,6
    80000f92:	06093683          	ld	a3,96(s2)
    80000f96:	6605                	lui	a2,0x1
    80000f98:	020005b7          	lui	a1,0x2000
    80000f9c:	15fd                	addi	a1,a1,-1
    80000f9e:	05b6                	slli	a1,a1,0xd
    80000fa0:	8526                	mv	a0,s1
    80000fa2:	fffff097          	auipc	ra,0xfffff
    80000fa6:	5f0080e7          	jalr	1520(ra) # 80000592 <mappages>
    80000faa:	02054163          	bltz	a0,80000fcc <proc_pagetable+0x76>
    return 0;
    80000fae:	8526                	mv	a0,s1
    80000fb0:	60e2                	ld	ra,24(sp)
    80000fb2:	6442                	ld	s0,16(sp)
    80000fb4:	64a2                	ld	s1,8(sp)
    80000fb6:	6902                	ld	s2,0(sp)
    80000fb8:	6105                	addi	sp,sp,32
    80000fba:	8082                	ret
  // only the supervisor uses it, on the way
    80000fbc:	4581                	li	a1,0
    80000fbe:	8526                	mv	a0,s1
    80000fc0:	00000097          	auipc	ra,0x0
    80000fc4:	a58080e7          	jalr	-1448(ra) # 80000a18 <uvmfree>
  // to/from user space, so not PTE_U.
    80000fc8:	4481                	li	s1,0
    80000fca:	b7d5                	j	80000fae <proc_pagetable+0x58>

    80000fcc:	4681                	li	a3,0
    80000fce:	4605                	li	a2,1
    80000fd0:	040005b7          	lui	a1,0x4000
    80000fd4:	15fd                	addi	a1,a1,-1
    80000fd6:	05b2                	slli	a1,a1,0xc
    80000fd8:	8526                	mv	a0,s1
    80000fda:	fffff097          	auipc	ra,0xfffff
    80000fde:	77e080e7          	jalr	1918(ra) # 80000758 <uvmunmap>
  // map the trapframe just below TRAMPOLINE, for trampoline.S.
    80000fe2:	4581                	li	a1,0
    80000fe4:	8526                	mv	a0,s1
    80000fe6:	00000097          	auipc	ra,0x0
    80000fea:	a32080e7          	jalr	-1486(ra) # 80000a18 <uvmfree>
  if(mappages(pagetable, TRAPFRAME, PGSIZE,
    80000fee:	4481                	li	s1,0
    80000ff0:	bf7d                	j	80000fae <proc_pagetable+0x58>

0000000080000ff2 <proc_freepagetable>:
// Free a process's page table, and free the
    80000ff2:	1101                	addi	sp,sp,-32
    80000ff4:	ec06                	sd	ra,24(sp)
    80000ff6:	e822                	sd	s0,16(sp)
    80000ff8:	e426                	sd	s1,8(sp)
    80000ffa:	e04a                	sd	s2,0(sp)
    80000ffc:	1000                	addi	s0,sp,32
    80000ffe:	84aa                	mv	s1,a0
    80001000:	892e                	mv	s2,a1
// physical memory it refers to.
    80001002:	4681                	li	a3,0
    80001004:	4605                	li	a2,1
    80001006:	040005b7          	lui	a1,0x4000
    8000100a:	15fd                	addi	a1,a1,-1
    8000100c:	05b2                	slli	a1,a1,0xc
    8000100e:	fffff097          	auipc	ra,0xfffff
    80001012:	74a080e7          	jalr	1866(ra) # 80000758 <uvmunmap>
void
    80001016:	4681                	li	a3,0
    80001018:	4605                	li	a2,1
    8000101a:	020005b7          	lui	a1,0x2000
    8000101e:	15fd                	addi	a1,a1,-1
    80001020:	05b6                	slli	a1,a1,0xd
    80001022:	8526                	mv	a0,s1
    80001024:	fffff097          	auipc	ra,0xfffff
    80001028:	734080e7          	jalr	1844(ra) # 80000758 <uvmunmap>
proc_freepagetable(pagetable_t pagetable, uint64 sz)
    8000102c:	85ca                	mv	a1,s2
    8000102e:	8526                	mv	a0,s1
    80001030:	00000097          	auipc	ra,0x0
    80001034:	9e8080e7          	jalr	-1560(ra) # 80000a18 <uvmfree>
{
    80001038:	60e2                	ld	ra,24(sp)
    8000103a:	6442                	ld	s0,16(sp)
    8000103c:	64a2                	ld	s1,8(sp)
    8000103e:	6902                	ld	s2,0(sp)
    80001040:	6105                	addi	sp,sp,32
    80001042:	8082                	ret

0000000080001044 <freeproc>:
// including user pages.
    80001044:	1101                	addi	sp,sp,-32
    80001046:	ec06                	sd	ra,24(sp)
    80001048:	e822                	sd	s0,16(sp)
    8000104a:	e426                	sd	s1,8(sp)
    8000104c:	1000                	addi	s0,sp,32
    8000104e:	84aa                	mv	s1,a0
// p->lock must be held.
    80001050:	7128                	ld	a0,96(a0)
    80001052:	c509                	beqz	a0,8000105c <freeproc+0x18>
static void
    80001054:	fffff097          	auipc	ra,0xfffff
    80001058:	fc8080e7          	jalr	-56(ra) # 8000001c <kfree>
freeproc(struct proc *p)
    8000105c:	0604b023          	sd	zero,96(s1)
{
    80001060:	68a8                	ld	a0,80(s1)
    80001062:	c511                	beqz	a0,8000106e <freeproc+0x2a>
  if(p->trapframe)
    80001064:	64ac                	ld	a1,72(s1)
    80001066:	00000097          	auipc	ra,0x0
    8000106a:	f8c080e7          	jalr	-116(ra) # 80000ff2 <proc_freepagetable>
    kfree((void*)p->trapframe);
    8000106e:	0404b823          	sd	zero,80(s1)
  p->trapframe = 0;
    80001072:	0404b423          	sd	zero,72(s1)
  if(p->pagetable)
    80001076:	0204a823          	sw	zero,48(s1)
    proc_freepagetable(p->pagetable, p->sz);
    8000107a:	0204bc23          	sd	zero,56(s1)
  p->pagetable = 0;
    8000107e:	16048023          	sb	zero,352(s1)
  p->sz = 0;
    80001082:	0204b023          	sd	zero,32(s1)
  p->pid = 0;
    80001086:	0204a423          	sw	zero,40(s1)
  p->parent = 0;
    8000108a:	0204a623          	sw	zero,44(s1)
  p->name[0] = 0;
    8000108e:	0004ac23          	sw	zero,24(s1)
  p->chan = 0;
    80001092:	60e2                	ld	ra,24(sp)
    80001094:	6442                	ld	s0,16(sp)
    80001096:	64a2                	ld	s1,8(sp)
    80001098:	6105                	addi	sp,sp,32
    8000109a:	8082                	ret

000000008000109c <allocproc>:
{
    8000109c:	1101                	addi	sp,sp,-32
    8000109e:	ec06                	sd	ra,24(sp)
    800010a0:	e822                	sd	s0,16(sp)
    800010a2:	e426                	sd	s1,8(sp)
    800010a4:	e04a                	sd	s2,0(sp)
    800010a6:	1000                	addi	s0,sp,32
  for(p = proc; p < &proc[NPROC]; p++) {
    800010a8:	00008497          	auipc	s1,0x8
    800010ac:	3d848493          	addi	s1,s1,984 # 80009480 <proc>
    800010b0:	0000e917          	auipc	s2,0xe
    800010b4:	fd090913          	addi	s2,s2,-48 # 8000f080 <tickslock>
    acquire(&p->lock);
    800010b8:	8526                	mv	a0,s1
    800010ba:	00005097          	auipc	ra,0x5
    800010be:	0f8080e7          	jalr	248(ra) # 800061b2 <acquire>
    if(p->state == UNUSED) {
    800010c2:	4c9c                	lw	a5,24(s1)
    800010c4:	cf81                	beqz	a5,800010dc <allocproc+0x40>
      release(&p->lock);
    800010c6:	8526                	mv	a0,s1
    800010c8:	00005097          	auipc	ra,0x5
    800010cc:	19e080e7          	jalr	414(ra) # 80006266 <release>
  for(p = proc; p < &proc[NPROC]; p++) {
    800010d0:	17048493          	addi	s1,s1,368
    800010d4:	ff2492e3          	bne	s1,s2,800010b8 <allocproc+0x1c>
  return 0;
    800010d8:	4481                	li	s1,0
    800010da:	a889                	j	8000112c <allocproc+0x90>
  p->pid = allocpid();
    800010dc:	00000097          	auipc	ra,0x0
    800010e0:	e34080e7          	jalr	-460(ra) # 80000f10 <allocpid>
    800010e4:	d888                	sw	a0,48(s1)
  p->state = USED;
    800010e6:	4785                	li	a5,1
    800010e8:	cc9c                	sw	a5,24(s1)
  p->handler = 0;
    800010ea:	fffff097          	auipc	ra,0xfffff
    800010ee:	02e080e7          	jalr	46(ra) # 80000118 <kalloc>
    800010f2:	892a                	mv	s2,a0
    800010f4:	f0a8                	sd	a0,96(s1)
    800010f6:	c131                	beqz	a0,8000113a <allocproc+0x9e>
    return 0;
    800010f8:	8526                	mv	a0,s1
    800010fa:	00000097          	auipc	ra,0x0
    800010fe:	e5c080e7          	jalr	-420(ra) # 80000f56 <proc_pagetable>
    80001102:	892a                	mv	s2,a0
    80001104:	e8a8                	sd	a0,80(s1)
  }
    80001106:	c531                	beqz	a0,80001152 <allocproc+0xb6>
  }
    80001108:	07000613          	li	a2,112
    8000110c:	4581                	li	a1,0
    8000110e:	06848513          	addi	a0,s1,104
    80001112:	fffff097          	auipc	ra,0xfffff
    80001116:	0b0080e7          	jalr	176(ra) # 800001c2 <memset>

    8000111a:	00000797          	auipc	a5,0x0
    8000111e:	db078793          	addi	a5,a5,-592 # 80000eca <forkret>
    80001122:	f4bc                	sd	a5,104(s1)
  // Set up new context to start executing at forkret,
    80001124:	60bc                	ld	a5,64(s1)
    80001126:	6705                	lui	a4,0x1
    80001128:	97ba                	add	a5,a5,a4
    8000112a:	f8bc                	sd	a5,112(s1)
  p->context.ra = (uint64)forkret;
    8000112c:	8526                	mv	a0,s1
    8000112e:	60e2                	ld	ra,24(sp)
    80001130:	6442                	ld	s0,16(sp)
    80001132:	64a2                	ld	s1,8(sp)
    80001134:	6902                	ld	s2,0(sp)
    80001136:	6105                	addi	sp,sp,32
    80001138:	8082                	ret
  p->handlerlock = 1;
    8000113a:	8526                	mv	a0,s1
    8000113c:	00000097          	auipc	ra,0x0
    80001140:	f08080e7          	jalr	-248(ra) # 80001044 <freeproc>

    80001144:	8526                	mv	a0,s1
    80001146:	00005097          	auipc	ra,0x5
    8000114a:	120080e7          	jalr	288(ra) # 80006266 <release>
  // Allocate a trapframe page.
    8000114e:	84ca                	mv	s1,s2
    80001150:	bff1                	j	8000112c <allocproc+0x90>

    80001152:	8526                	mv	a0,s1
    80001154:	00000097          	auipc	ra,0x0
    80001158:	ef0080e7          	jalr	-272(ra) # 80001044 <freeproc>
  // An empty user page table.
    8000115c:	8526                	mv	a0,s1
    8000115e:	00005097          	auipc	ra,0x5
    80001162:	108080e7          	jalr	264(ra) # 80006266 <release>
  p->pagetable = proc_pagetable(p);
    80001166:	84ca                	mv	s1,s2
    80001168:	b7d1                	j	8000112c <allocproc+0x90>

000000008000116a <userinit>:

    8000116a:	1101                	addi	sp,sp,-32
    8000116c:	ec06                	sd	ra,24(sp)
    8000116e:	e822                	sd	s0,16(sp)
    80001170:	e426                	sd	s1,8(sp)
    80001172:	1000                	addi	s0,sp,32
userinit(void)
    80001174:	00000097          	auipc	ra,0x0
    80001178:	f28080e7          	jalr	-216(ra) # 8000109c <allocproc>
    8000117c:	84aa                	mv	s1,a0
{
    8000117e:	00008797          	auipc	a5,0x8
    80001182:	e8a7b923          	sd	a0,-366(a5) # 80009010 <initproc>
  initproc = p;
    80001186:	03400613          	li	a2,52
    8000118a:	00008597          	auipc	a1,0x8
    8000118e:	82658593          	addi	a1,a1,-2010 # 800089b0 <initcode>
    80001192:	6928                	ld	a0,80(a0)
    80001194:	fffff097          	auipc	ra,0xfffff
    80001198:	6b6080e7          	jalr	1718(ra) # 8000084a <uvminit>
  
    8000119c:	6785                	lui	a5,0x1
    8000119e:	e4bc                	sd	a5,72(s1)
  uvminit(p->pagetable, initcode, sizeof(initcode));
    800011a0:	70b8                	ld	a4,96(s1)
    800011a2:	00073c23          	sd	zero,24(a4) # 1018 <_entry-0x7fffefe8>
  p->sz = PGSIZE;
    800011a6:	70b8                	ld	a4,96(s1)
    800011a8:	fb1c                	sd	a5,48(a4)
  // prepare for the very first "return" from kernel to user.
    800011aa:	4641                	li	a2,16
    800011ac:	00007597          	auipc	a1,0x7
    800011b0:	fd458593          	addi	a1,a1,-44 # 80008180 <etext+0x180>
    800011b4:	16048513          	addi	a0,s1,352
    800011b8:	fffff097          	auipc	ra,0xfffff
    800011bc:	15c080e7          	jalr	348(ra) # 80000314 <safestrcpy>
  p->trapframe->epc = 0;      // user program counter
    800011c0:	00007517          	auipc	a0,0x7
    800011c4:	fd050513          	addi	a0,a0,-48 # 80008190 <etext+0x190>
    800011c8:	00002097          	auipc	ra,0x2
    800011cc:	1aa080e7          	jalr	426(ra) # 80003372 <namei>
    800011d0:	14a4bc23          	sd	a0,344(s1)

    800011d4:	478d                	li	a5,3
    800011d6:	cc9c                	sw	a5,24(s1)
  p->cwd = namei("/");
    800011d8:	8526                	mv	a0,s1
    800011da:	00005097          	auipc	ra,0x5
    800011de:	08c080e7          	jalr	140(ra) # 80006266 <release>

    800011e2:	60e2                	ld	ra,24(sp)
    800011e4:	6442                	ld	s0,16(sp)
    800011e6:	64a2                	ld	s1,8(sp)
    800011e8:	6105                	addi	sp,sp,32
    800011ea:	8082                	ret

00000000800011ec <growproc>:
// Grow or shrink user memory by n bytes.
    800011ec:	1101                	addi	sp,sp,-32
    800011ee:	ec06                	sd	ra,24(sp)
    800011f0:	e822                	sd	s0,16(sp)
    800011f2:	e426                	sd	s1,8(sp)
    800011f4:	e04a                	sd	s2,0(sp)
    800011f6:	1000                	addi	s0,sp,32
    800011f8:	84aa                	mv	s1,a0
int
    800011fa:	00000097          	auipc	ra,0x0
    800011fe:	c98080e7          	jalr	-872(ra) # 80000e92 <myproc>
    80001202:	892a                	mv	s2,a0
{
    80001204:	652c                	ld	a1,72(a0)
    80001206:	0005861b          	sext.w	a2,a1
  uint sz;
    8000120a:	00904f63          	bgtz	s1,80001228 <growproc+0x3c>
  if(n > 0){
    8000120e:	0204cc63          	bltz	s1,80001246 <growproc+0x5a>
    }
    80001212:	1602                	slli	a2,a2,0x20
    80001214:	9201                	srli	a2,a2,0x20
    80001216:	04c93423          	sd	a2,72(s2)
  } else if(n < 0){
    8000121a:	4501                	li	a0,0
    sz = uvmdealloc(p->pagetable, sz, sz + n);
    8000121c:	60e2                	ld	ra,24(sp)
    8000121e:	6442                	ld	s0,16(sp)
    80001220:	64a2                	ld	s1,8(sp)
    80001222:	6902                	ld	s2,0(sp)
    80001224:	6105                	addi	sp,sp,32
    80001226:	8082                	ret
  struct proc *p = myproc();
    80001228:	9e25                	addw	a2,a2,s1
    8000122a:	1602                	slli	a2,a2,0x20
    8000122c:	9201                	srli	a2,a2,0x20
    8000122e:	1582                	slli	a1,a1,0x20
    80001230:	9181                	srli	a1,a1,0x20
    80001232:	6928                	ld	a0,80(a0)
    80001234:	fffff097          	auipc	ra,0xfffff
    80001238:	6d0080e7          	jalr	1744(ra) # 80000904 <uvmalloc>
    8000123c:	0005061b          	sext.w	a2,a0
    80001240:	fa69                	bnez	a2,80001212 <growproc+0x26>

    80001242:	557d                	li	a0,-1
    80001244:	bfe1                	j	8000121c <growproc+0x30>
    if((sz = uvmalloc(p->pagetable, sz, sz + n)) == 0) {
    80001246:	9e25                	addw	a2,a2,s1
    80001248:	1602                	slli	a2,a2,0x20
    8000124a:	9201                	srli	a2,a2,0x20
    8000124c:	1582                	slli	a1,a1,0x20
    8000124e:	9181                	srli	a1,a1,0x20
    80001250:	6928                	ld	a0,80(a0)
    80001252:	fffff097          	auipc	ra,0xfffff
    80001256:	66a080e7          	jalr	1642(ra) # 800008bc <uvmdealloc>
    8000125a:	0005061b          	sext.w	a2,a0
    8000125e:	bf55                	j	80001212 <growproc+0x26>

0000000080001260 <fork>:
// Create a new process, copying the parent.
    80001260:	7179                	addi	sp,sp,-48
    80001262:	f406                	sd	ra,40(sp)
    80001264:	f022                	sd	s0,32(sp)
    80001266:	ec26                	sd	s1,24(sp)
    80001268:	e84a                	sd	s2,16(sp)
    8000126a:	e44e                	sd	s3,8(sp)
    8000126c:	e052                	sd	s4,0(sp)
    8000126e:	1800                	addi	s0,sp,48
fork(void)
    80001270:	00000097          	auipc	ra,0x0
    80001274:	c22080e7          	jalr	-990(ra) # 80000e92 <myproc>
    80001278:	892a                	mv	s2,a0
  struct proc *np;
    8000127a:	00000097          	auipc	ra,0x0
    8000127e:	e22080e7          	jalr	-478(ra) # 8000109c <allocproc>
    80001282:	10050f63          	beqz	a0,800013a0 <fork+0x140>
    80001286:	89aa                	mv	s3,a0
    return -1;
    80001288:	04893603          	ld	a2,72(s2)
    8000128c:	692c                	ld	a1,80(a0)
    8000128e:	05093503          	ld	a0,80(s2)
    80001292:	fffff097          	auipc	ra,0xfffff
    80001296:	7be080e7          	jalr	1982(ra) # 80000a50 <uvmcopy>
    8000129a:	04054a63          	bltz	a0,800012ee <fork+0x8e>
    freeproc(np);
    8000129e:	04893783          	ld	a5,72(s2)
    800012a2:	04f9b423          	sd	a5,72(s3)
  }
    800012a6:	06093683          	ld	a3,96(s2)
    800012aa:	87b6                	mv	a5,a3
    800012ac:	0609b703          	ld	a4,96(s3)
    800012b0:	12068693          	addi	a3,a3,288
    800012b4:	0007b803          	ld	a6,0(a5) # 1000 <_entry-0x7ffff000>
    800012b8:	6788                	ld	a0,8(a5)
    800012ba:	6b8c                	ld	a1,16(a5)
    800012bc:	6f90                	ld	a2,24(a5)
    800012be:	01073023          	sd	a6,0(a4)
    800012c2:	e708                	sd	a0,8(a4)
    800012c4:	eb0c                	sd	a1,16(a4)
    800012c6:	ef10                	sd	a2,24(a4)
    800012c8:	02078793          	addi	a5,a5,32
    800012cc:	02070713          	addi	a4,a4,32
    800012d0:	fed792e3          	bne	a5,a3,800012b4 <fork+0x54>
  // copy saved user registers.
    800012d4:	05892783          	lw	a5,88(s2)
    800012d8:	04f9ac23          	sw	a5,88(s3)
  // Cause fork to return 0 in the child.
    800012dc:	0609b783          	ld	a5,96(s3)
    800012e0:	0607b823          	sd	zero,112(a5)
    800012e4:	0d800493          	li	s1,216
  // increment reference counts on open file descriptors.
    800012e8:	15800a13          	li	s4,344
    800012ec:	a03d                	j	8000131a <fork+0xba>
  }
    800012ee:	854e                	mv	a0,s3
    800012f0:	00000097          	auipc	ra,0x0
    800012f4:	d54080e7          	jalr	-684(ra) # 80001044 <freeproc>

    800012f8:	854e                	mv	a0,s3
    800012fa:	00005097          	auipc	ra,0x5
    800012fe:	f6c080e7          	jalr	-148(ra) # 80006266 <release>
  // Copy user memory from parent to child.
    80001302:	5a7d                	li	s4,-1
    80001304:	a069                	j	8000138e <fork+0x12e>
    if(p->ofile[i])
    80001306:	00002097          	auipc	ra,0x2
    8000130a:	702080e7          	jalr	1794(ra) # 80003a08 <filedup>
    8000130e:	009987b3          	add	a5,s3,s1
    80001312:	e388                	sd	a0,0(a5)
  // increment reference counts on open file descriptors.
    80001314:	04a1                	addi	s1,s1,8
    80001316:	01448763          	beq	s1,s4,80001324 <fork+0xc4>
  for(i = 0; i < NOFILE; i++)
    8000131a:	009907b3          	add	a5,s2,s1
    8000131e:	6388                	ld	a0,0(a5)
    80001320:	f17d                	bnez	a0,80001306 <fork+0xa6>
    80001322:	bfcd                	j	80001314 <fork+0xb4>
      np->ofile[i] = filedup(p->ofile[i]);
    80001324:	15893503          	ld	a0,344(s2)
    80001328:	00002097          	auipc	ra,0x2
    8000132c:	856080e7          	jalr	-1962(ra) # 80002b7e <idup>
    80001330:	14a9bc23          	sd	a0,344(s3)

    80001334:	4641                	li	a2,16
    80001336:	16090593          	addi	a1,s2,352
    8000133a:	16098513          	addi	a0,s3,352
    8000133e:	fffff097          	auipc	ra,0xfffff
    80001342:	fd6080e7          	jalr	-42(ra) # 80000314 <safestrcpy>

    80001346:	0309aa03          	lw	s4,48(s3)

    8000134a:	854e                	mv	a0,s3
    8000134c:	00005097          	auipc	ra,0x5
    80001350:	f1a080e7          	jalr	-230(ra) # 80006266 <release>

    80001354:	00008497          	auipc	s1,0x8
    80001358:	d1448493          	addi	s1,s1,-748 # 80009068 <wait_lock>
    8000135c:	8526                	mv	a0,s1
    8000135e:	00005097          	auipc	ra,0x5
    80001362:	e54080e7          	jalr	-428(ra) # 800061b2 <acquire>
  acquire(&wait_lock);
    80001366:	0329bc23          	sd	s2,56(s3)
  np->parent = p;
    8000136a:	8526                	mv	a0,s1
    8000136c:	00005097          	auipc	ra,0x5
    80001370:	efa080e7          	jalr	-262(ra) # 80006266 <release>

    80001374:	854e                	mv	a0,s3
    80001376:	00005097          	auipc	ra,0x5
    8000137a:	e3c080e7          	jalr	-452(ra) # 800061b2 <acquire>
  acquire(&np->lock);
    8000137e:	478d                	li	a5,3
    80001380:	00f9ac23          	sw	a5,24(s3)
  np->state = RUNNABLE;
    80001384:	854e                	mv	a0,s3
    80001386:	00005097          	auipc	ra,0x5
    8000138a:	ee0080e7          	jalr	-288(ra) # 80006266 <release>
  return pid;
    8000138e:	8552                	mv	a0,s4
    80001390:	70a2                	ld	ra,40(sp)
    80001392:	7402                	ld	s0,32(sp)
    80001394:	64e2                	ld	s1,24(sp)
    80001396:	6942                	ld	s2,16(sp)
    80001398:	69a2                	ld	s3,8(sp)
    8000139a:	6a02                	ld	s4,0(sp)
    8000139c:	6145                	addi	sp,sp,48
    8000139e:	8082                	ret
  struct proc *p = myproc();
    800013a0:	5a7d                	li	s4,-1
    800013a2:	b7f5                	j	8000138e <fork+0x12e>

00000000800013a4 <scheduler>:
scheduler(void)
    800013a4:	7139                	addi	sp,sp,-64
    800013a6:	fc06                	sd	ra,56(sp)
    800013a8:	f822                	sd	s0,48(sp)
    800013aa:	f426                	sd	s1,40(sp)
    800013ac:	f04a                	sd	s2,32(sp)
    800013ae:	ec4e                	sd	s3,24(sp)
    800013b0:	e852                	sd	s4,16(sp)
    800013b2:	e456                	sd	s5,8(sp)
    800013b4:	e05a                	sd	s6,0(sp)
    800013b6:	0080                	addi	s0,sp,64
    800013b8:	8792                	mv	a5,tp
  int id = r_tp();
    800013ba:	2781                	sext.w	a5,a5
  
    800013bc:	00779a93          	slli	s5,a5,0x7
    800013c0:	00008717          	auipc	a4,0x8
    800013c4:	c9070713          	addi	a4,a4,-880 # 80009050 <pid_lock>
    800013c8:	9756                	add	a4,a4,s5
    800013ca:	02073823          	sd	zero,48(a4)
        c->proc = p;
    800013ce:	00008717          	auipc	a4,0x8
    800013d2:	cba70713          	addi	a4,a4,-838 # 80009088 <cpus+0x8>
    800013d6:	9aba                	add	s5,s5,a4
      acquire(&p->lock);
    800013d8:	498d                	li	s3,3
        // before jumping back to us.
    800013da:	4b11                	li	s6,4
        p->state = RUNNING;
    800013dc:	079e                	slli	a5,a5,0x7
    800013de:	00008a17          	auipc	s4,0x8
    800013e2:	c72a0a13          	addi	s4,s4,-910 # 80009050 <pid_lock>
    800013e6:	9a3e                	add	s4,s4,a5

    800013e8:	0000e917          	auipc	s2,0xe
    800013ec:	c9890913          	addi	s2,s2,-872 # 8000f080 <tickslock>
  asm volatile("csrr %0, sstatus" : "=r" (x) );
    800013f0:	100027f3          	csrr	a5,sstatus
}
    800013f4:	0027e793          	ori	a5,a5,2
  asm volatile("csrw sstatus, %0" : : "r" (x));
    800013f8:	10079073          	csrw	sstatus,a5
    800013fc:	00008497          	auipc	s1,0x8
    80001400:	08448493          	addi	s1,s1,132 # 80009480 <proc>
    80001404:	a03d                	j	80001432 <scheduler+0x8e>
        // before jumping back to us.
    80001406:	0164ac23          	sw	s6,24(s1)
        p->state = RUNNING;
    8000140a:	029a3823          	sd	s1,48(s4)
        c->proc = p;
    8000140e:	06848593          	addi	a1,s1,104
    80001412:	8556                	mv	a0,s5
    80001414:	00000097          	auipc	ra,0x0
    80001418:	66e080e7          	jalr	1646(ra) # 80001a82 <swtch>
        // It should have changed its p->state before coming back.
    8000141c:	020a3823          	sd	zero,48(s4)
      }
    80001420:	8526                	mv	a0,s1
    80001422:	00005097          	auipc	ra,0x5
    80001426:	e44080e7          	jalr	-444(ra) # 80006266 <release>

    8000142a:	17048493          	addi	s1,s1,368
    8000142e:	fd2481e3          	beq	s1,s2,800013f0 <scheduler+0x4c>
    for(p = proc; p < &proc[NPROC]; p++) {
    80001432:	8526                	mv	a0,s1
    80001434:	00005097          	auipc	ra,0x5
    80001438:	d7e080e7          	jalr	-642(ra) # 800061b2 <acquire>
      acquire(&p->lock);
    8000143c:	4c9c                	lw	a5,24(s1)
    8000143e:	ff3791e3          	bne	a5,s3,80001420 <scheduler+0x7c>
    80001442:	b7d1                	j	80001406 <scheduler+0x62>

0000000080001444 <sched>:
sched(void)
    80001444:	7179                	addi	sp,sp,-48
    80001446:	f406                	sd	ra,40(sp)
    80001448:	f022                	sd	s0,32(sp)
    8000144a:	ec26                	sd	s1,24(sp)
    8000144c:	e84a                	sd	s2,16(sp)
    8000144e:	e44e                	sd	s3,8(sp)
    80001450:	1800                	addi	s0,sp,48
  int intena;
    80001452:	00000097          	auipc	ra,0x0
    80001456:	a40080e7          	jalr	-1472(ra) # 80000e92 <myproc>
    8000145a:	84aa                	mv	s1,a0

    8000145c:	00005097          	auipc	ra,0x5
    80001460:	cdc080e7          	jalr	-804(ra) # 80006138 <holding>
    80001464:	c93d                	beqz	a0,800014da <sched+0x96>
// read and write tp, the thread pointer, which holds
    80001466:	8792                	mv	a5,tp
    panic("sched p->lock");
    80001468:	2781                	sext.w	a5,a5
    8000146a:	079e                	slli	a5,a5,0x7
    8000146c:	00008717          	auipc	a4,0x8
    80001470:	be470713          	addi	a4,a4,-1052 # 80009050 <pid_lock>
    80001474:	97ba                	add	a5,a5,a4
    80001476:	0a87a703          	lw	a4,168(a5)
    8000147a:	4785                	li	a5,1
    8000147c:	06f71763          	bne	a4,a5,800014ea <sched+0xa6>
    panic("sched locks");
    80001480:	4c98                	lw	a4,24(s1)
    80001482:	4791                	li	a5,4
    80001484:	06f70b63          	beq	a4,a5,800014fa <sched+0xb6>
  asm volatile("csrr %0, sstatus" : "=r" (x) );
    80001488:	100027f3          	csrr	a5,sstatus

    8000148c:	8b89                	andi	a5,a5,2
    panic("sched running");
    8000148e:	efb5                	bnez	a5,8000150a <sched+0xc6>
// read and write tp, the thread pointer, which holds
    80001490:	8792                	mv	a5,tp

    80001492:	00008917          	auipc	s2,0x8
    80001496:	bbe90913          	addi	s2,s2,-1090 # 80009050 <pid_lock>
    8000149a:	2781                	sext.w	a5,a5
    8000149c:	079e                	slli	a5,a5,0x7
    8000149e:	97ca                	add	a5,a5,s2
    800014a0:	0ac7a983          	lw	s3,172(a5)
    800014a4:	8792                	mv	a5,tp
  intena = mycpu()->intena;
    800014a6:	2781                	sext.w	a5,a5
    800014a8:	079e                	slli	a5,a5,0x7
    800014aa:	00008597          	auipc	a1,0x8
    800014ae:	bde58593          	addi	a1,a1,-1058 # 80009088 <cpus+0x8>
    800014b2:	95be                	add	a1,a1,a5
    800014b4:	06848513          	addi	a0,s1,104
    800014b8:	00000097          	auipc	ra,0x0
    800014bc:	5ca080e7          	jalr	1482(ra) # 80001a82 <swtch>
    800014c0:	8792                	mv	a5,tp
  swtch(&p->context, &mycpu()->context);
    800014c2:	2781                	sext.w	a5,a5
    800014c4:	079e                	slli	a5,a5,0x7
    800014c6:	97ca                	add	a5,a5,s2
    800014c8:	0b37a623          	sw	s3,172(a5)
  mycpu()->intena = intena;
    800014cc:	70a2                	ld	ra,40(sp)
    800014ce:	7402                	ld	s0,32(sp)
    800014d0:	64e2                	ld	s1,24(sp)
    800014d2:	6942                	ld	s2,16(sp)
    800014d4:	69a2                	ld	s3,8(sp)
    800014d6:	6145                	addi	sp,sp,48
    800014d8:	8082                	ret
  if(!holding(&p->lock))
    800014da:	00007517          	auipc	a0,0x7
    800014de:	cbe50513          	addi	a0,a0,-834 # 80008198 <etext+0x198>
    800014e2:	00004097          	auipc	ra,0x4
    800014e6:	786080e7          	jalr	1926(ra) # 80005c68 <panic>
  if(mycpu()->noff != 1)
    800014ea:	00007517          	auipc	a0,0x7
    800014ee:	cbe50513          	addi	a0,a0,-834 # 800081a8 <etext+0x1a8>
    800014f2:	00004097          	auipc	ra,0x4
    800014f6:	776080e7          	jalr	1910(ra) # 80005c68 <panic>
  if(p->state == RUNNING)
    800014fa:	00007517          	auipc	a0,0x7
    800014fe:	cbe50513          	addi	a0,a0,-834 # 800081b8 <etext+0x1b8>
    80001502:	00004097          	auipc	ra,0x4
    80001506:	766080e7          	jalr	1894(ra) # 80005c68 <panic>
  if(intr_get())
    8000150a:	00007517          	auipc	a0,0x7
    8000150e:	cbe50513          	addi	a0,a0,-834 # 800081c8 <etext+0x1c8>
    80001512:	00004097          	auipc	ra,0x4
    80001516:	756080e7          	jalr	1878(ra) # 80005c68 <panic>

000000008000151a <yield>:
yield(void)
    8000151a:	1101                	addi	sp,sp,-32
    8000151c:	ec06                	sd	ra,24(sp)
    8000151e:	e822                	sd	s0,16(sp)
    80001520:	e426                	sd	s1,8(sp)
    80001522:	1000                	addi	s0,sp,32
{
    80001524:	00000097          	auipc	ra,0x0
    80001528:	96e080e7          	jalr	-1682(ra) # 80000e92 <myproc>
    8000152c:	84aa                	mv	s1,a0
  struct proc *p = myproc();
    8000152e:	00005097          	auipc	ra,0x5
    80001532:	c84080e7          	jalr	-892(ra) # 800061b2 <acquire>
  acquire(&p->lock);
    80001536:	478d                	li	a5,3
    80001538:	cc9c                	sw	a5,24(s1)
  p->state = RUNNABLE;
    8000153a:	00000097          	auipc	ra,0x0
    8000153e:	f0a080e7          	jalr	-246(ra) # 80001444 <sched>
  sched();
    80001542:	8526                	mv	a0,s1
    80001544:	00005097          	auipc	ra,0x5
    80001548:	d22080e7          	jalr	-734(ra) # 80006266 <release>
  release(&p->lock);
    8000154c:	60e2                	ld	ra,24(sp)
    8000154e:	6442                	ld	s0,16(sp)
    80001550:	64a2                	ld	s1,8(sp)
    80001552:	6105                	addi	sp,sp,32
    80001554:	8082                	ret

0000000080001556 <sleep>:
}

// Atomically release lock and sleep on chan.
// Reacquires lock when awakened.
void
sleep(void *chan, struct spinlock *lk)
    80001556:	7179                	addi	sp,sp,-48
    80001558:	f406                	sd	ra,40(sp)
    8000155a:	f022                	sd	s0,32(sp)
    8000155c:	ec26                	sd	s1,24(sp)
    8000155e:	e84a                	sd	s2,16(sp)
    80001560:	e44e                	sd	s3,8(sp)
    80001562:	1800                	addi	s0,sp,48
    80001564:	89aa                	mv	s3,a0
    80001566:	892e                	mv	s2,a1
{
    80001568:	00000097          	auipc	ra,0x0
    8000156c:	92a080e7          	jalr	-1750(ra) # 80000e92 <myproc>
    80001570:	84aa                	mv	s1,a0
  // change p->state and then call sched.
  // Once we hold p->lock, we can be
  // guaranteed that we won't miss any wakeup
  // (wakeup locks p->lock),
  // so it's okay to release lk.

    80001572:	00005097          	auipc	ra,0x5
    80001576:	c40080e7          	jalr	-960(ra) # 800061b2 <acquire>
  acquire(&p->lock);  //DOC: sleeplock1
    8000157a:	854a                	mv	a0,s2
    8000157c:	00005097          	auipc	ra,0x5
    80001580:	cea080e7          	jalr	-790(ra) # 80006266 <release>
  release(lk);

  // Go to sleep.
    80001584:	0334b023          	sd	s3,32(s1)
  p->chan = chan;
    80001588:	4789                	li	a5,2
    8000158a:	cc9c                	sw	a5,24(s1)
  p->state = SLEEPING;

    8000158c:	00000097          	auipc	ra,0x0
    80001590:	eb8080e7          	jalr	-328(ra) # 80001444 <sched>
  sched();

  // Tidy up.
    80001594:	0204b023          	sd	zero,32(s1)
  p->chan = 0;

  // Reacquire original lock.
    80001598:	8526                	mv	a0,s1
    8000159a:	00005097          	auipc	ra,0x5
    8000159e:	ccc080e7          	jalr	-820(ra) # 80006266 <release>
  release(&p->lock);
    800015a2:	854a                	mv	a0,s2
    800015a4:	00005097          	auipc	ra,0x5
    800015a8:	c0e080e7          	jalr	-1010(ra) # 800061b2 <acquire>
  acquire(lk);
    800015ac:	70a2                	ld	ra,40(sp)
    800015ae:	7402                	ld	s0,32(sp)
    800015b0:	64e2                	ld	s1,24(sp)
    800015b2:	6942                	ld	s2,16(sp)
    800015b4:	69a2                	ld	s3,8(sp)
    800015b6:	6145                	addi	sp,sp,48
    800015b8:	8082                	ret

00000000800015ba <wait>:
wait(uint64 addr)
    800015ba:	715d                	addi	sp,sp,-80
    800015bc:	e486                	sd	ra,72(sp)
    800015be:	e0a2                	sd	s0,64(sp)
    800015c0:	fc26                	sd	s1,56(sp)
    800015c2:	f84a                	sd	s2,48(sp)
    800015c4:	f44e                	sd	s3,40(sp)
    800015c6:	f052                	sd	s4,32(sp)
    800015c8:	ec56                	sd	s5,24(sp)
    800015ca:	e85a                	sd	s6,16(sp)
    800015cc:	e45e                	sd	s7,8(sp)
    800015ce:	e062                	sd	s8,0(sp)
    800015d0:	0880                	addi	s0,sp,80
    800015d2:	8b2a                	mv	s6,a0
  int havekids, pid;
    800015d4:	00000097          	auipc	ra,0x0
    800015d8:	8be080e7          	jalr	-1858(ra) # 80000e92 <myproc>
    800015dc:	892a                	mv	s2,a0

    800015de:	00008517          	auipc	a0,0x8
    800015e2:	a8a50513          	addi	a0,a0,-1398 # 80009068 <wait_lock>
    800015e6:	00005097          	auipc	ra,0x5
    800015ea:	bcc080e7          	jalr	-1076(ra) # 800061b2 <acquire>
    // Scan through table looking for exited children.
    800015ee:	4b81                	li	s7,0
        havekids = 1;
    800015f0:	4a15                	li	s4,5
    havekids = 0;
    800015f2:	0000e997          	auipc	s3,0xe
    800015f6:	a8e98993          	addi	s3,s3,-1394 # 8000f080 <tickslock>

    800015fa:	4a85                	li	s5,1
    // Wait for a child to exit.
    800015fc:	00008c17          	auipc	s8,0x8
    80001600:	a6cc0c13          	addi	s8,s8,-1428 # 80009068 <wait_lock>
    // Scan through table looking for exited children.
    80001604:	875e                	mv	a4,s7
    havekids = 0;
    80001606:	00008497          	auipc	s1,0x8
    8000160a:	e7a48493          	addi	s1,s1,-390 # 80009480 <proc>
    8000160e:	a0bd                	j	8000167c <wait+0xc2>
          // Found one.
    80001610:	0304a983          	lw	s3,48(s1)
          pid = np->pid;
    80001614:	000b0e63          	beqz	s6,80001630 <wait+0x76>
    80001618:	4691                	li	a3,4
    8000161a:	02c48613          	addi	a2,s1,44
    8000161e:	85da                	mv	a1,s6
    80001620:	05093503          	ld	a0,80(s2)
    80001624:	fffff097          	auipc	ra,0xfffff
    80001628:	530080e7          	jalr	1328(ra) # 80000b54 <copyout>
    8000162c:	02054563          	bltz	a0,80001656 <wait+0x9c>
          }
    80001630:	8526                	mv	a0,s1
    80001632:	00000097          	auipc	ra,0x0
    80001636:	a12080e7          	jalr	-1518(ra) # 80001044 <freeproc>
          freeproc(np);
    8000163a:	8526                	mv	a0,s1
    8000163c:	00005097          	auipc	ra,0x5
    80001640:	c2a080e7          	jalr	-982(ra) # 80006266 <release>
          release(&np->lock);
    80001644:	00008517          	auipc	a0,0x8
    80001648:	a2450513          	addi	a0,a0,-1500 # 80009068 <wait_lock>
    8000164c:	00005097          	auipc	ra,0x5
    80001650:	c1a080e7          	jalr	-998(ra) # 80006266 <release>
          release(&wait_lock);
    80001654:	a09d                	j	800016ba <wait+0x100>
                                  sizeof(np->xstate)) < 0) {
    80001656:	8526                	mv	a0,s1
    80001658:	00005097          	auipc	ra,0x5
    8000165c:	c0e080e7          	jalr	-1010(ra) # 80006266 <release>
            release(&np->lock);
    80001660:	00008517          	auipc	a0,0x8
    80001664:	a0850513          	addi	a0,a0,-1528 # 80009068 <wait_lock>
    80001668:	00005097          	auipc	ra,0x5
    8000166c:	bfe080e7          	jalr	-1026(ra) # 80006266 <release>
            release(&wait_lock);
    80001670:	59fd                	li	s3,-1
    80001672:	a0a1                	j	800016ba <wait+0x100>
    havekids = 0;
    80001674:	17048493          	addi	s1,s1,368
    80001678:	03348463          	beq	s1,s3,800016a0 <wait+0xe6>
    for(np = proc; np < &proc[NPROC]; np++){
    8000167c:	7c9c                	ld	a5,56(s1)
    8000167e:	ff279be3          	bne	a5,s2,80001674 <wait+0xba>
        // make sure the child isn't still in exit() or swtch().
    80001682:	8526                	mv	a0,s1
    80001684:	00005097          	auipc	ra,0x5
    80001688:	b2e080e7          	jalr	-1234(ra) # 800061b2 <acquire>
        havekids = 1;
    8000168c:	4c9c                	lw	a5,24(s1)
    8000168e:	f94781e3          	beq	a5,s4,80001610 <wait+0x56>
        }
    80001692:	8526                	mv	a0,s1
    80001694:	00005097          	auipc	ra,0x5
    80001698:	bd2080e7          	jalr	-1070(ra) # 80006266 <release>

    8000169c:	8756                	mv	a4,s5
    8000169e:	bfd9                	j	80001674 <wait+0xba>
    // No point waiting if we don't have any children.
    800016a0:	c701                	beqz	a4,800016a8 <wait+0xee>
    800016a2:	02892783          	lw	a5,40(s2)
    800016a6:	c79d                	beqz	a5,800016d4 <wait+0x11a>
    if(!havekids || p->killed){
    800016a8:	00008517          	auipc	a0,0x8
    800016ac:	9c050513          	addi	a0,a0,-1600 # 80009068 <wait_lock>
    800016b0:	00005097          	auipc	ra,0x5
    800016b4:	bb6080e7          	jalr	-1098(ra) # 80006266 <release>
      release(&wait_lock);
    800016b8:	59fd                	li	s3,-1
  }
    800016ba:	854e                	mv	a0,s3
    800016bc:	60a6                	ld	ra,72(sp)
    800016be:	6406                	ld	s0,64(sp)
    800016c0:	74e2                	ld	s1,56(sp)
    800016c2:	7942                	ld	s2,48(sp)
    800016c4:	79a2                	ld	s3,40(sp)
    800016c6:	7a02                	ld	s4,32(sp)
    800016c8:	6ae2                	ld	s5,24(sp)
    800016ca:	6b42                	ld	s6,16(sp)
    800016cc:	6ba2                	ld	s7,8(sp)
    800016ce:	6c02                	ld	s8,0(sp)
    800016d0:	6161                	addi	sp,sp,80
    800016d2:	8082                	ret
    // Wait for a child to exit.
    800016d4:	85e2                	mv	a1,s8
    800016d6:	854a                	mv	a0,s2
    800016d8:	00000097          	auipc	ra,0x0
    800016dc:	e7e080e7          	jalr	-386(ra) # 80001556 <sleep>
    // Scan through table looking for exited children.
    800016e0:	b715                	j	80001604 <wait+0x4a>

00000000800016e2 <wakeup>:
}

// Wake up all processes sleeping on chan.
// Must be called without any p->lock.
void
wakeup(void *chan)
    800016e2:	7139                	addi	sp,sp,-64
    800016e4:	fc06                	sd	ra,56(sp)
    800016e6:	f822                	sd	s0,48(sp)
    800016e8:	f426                	sd	s1,40(sp)
    800016ea:	f04a                	sd	s2,32(sp)
    800016ec:	ec4e                	sd	s3,24(sp)
    800016ee:	e852                	sd	s4,16(sp)
    800016f0:	e456                	sd	s5,8(sp)
    800016f2:	0080                	addi	s0,sp,64
    800016f4:	8a2a                	mv	s4,a0
{
  struct proc *p;

    800016f6:	00008497          	auipc	s1,0x8
    800016fa:	d8a48493          	addi	s1,s1,-630 # 80009480 <proc>
  for(p = proc; p < &proc[NPROC]; p++) {
    if(p != myproc()){
      acquire(&p->lock);
    800016fe:	4989                	li	s3,2
      if(p->state == SLEEPING && p->chan == chan) {
    80001700:	4a8d                	li	s5,3

    80001702:	0000e917          	auipc	s2,0xe
    80001706:	97e90913          	addi	s2,s2,-1666 # 8000f080 <tickslock>
    8000170a:	a821                	j	80001722 <wakeup+0x40>
      if(p->state == SLEEPING && p->chan == chan) {
    8000170c:	0154ac23          	sw	s5,24(s1)
        p->state = RUNNABLE;
      }
    80001710:	8526                	mv	a0,s1
    80001712:	00005097          	auipc	ra,0x5
    80001716:	b54080e7          	jalr	-1196(ra) # 80006266 <release>

    8000171a:	17048493          	addi	s1,s1,368
    8000171e:	03248463          	beq	s1,s2,80001746 <wakeup+0x64>
  for(p = proc; p < &proc[NPROC]; p++) {
    80001722:	fffff097          	auipc	ra,0xfffff
    80001726:	770080e7          	jalr	1904(ra) # 80000e92 <myproc>
    8000172a:	fea488e3          	beq	s1,a0,8000171a <wakeup+0x38>
    if(p != myproc()){
    8000172e:	8526                	mv	a0,s1
    80001730:	00005097          	auipc	ra,0x5
    80001734:	a82080e7          	jalr	-1406(ra) # 800061b2 <acquire>
      acquire(&p->lock);
    80001738:	4c9c                	lw	a5,24(s1)
    8000173a:	fd379be3          	bne	a5,s3,80001710 <wakeup+0x2e>
    8000173e:	709c                	ld	a5,32(s1)
    80001740:	fd4798e3          	bne	a5,s4,80001710 <wakeup+0x2e>
    80001744:	b7e1                	j	8000170c <wakeup+0x2a>
      release(&p->lock);
    }
  }
    80001746:	70e2                	ld	ra,56(sp)
    80001748:	7442                	ld	s0,48(sp)
    8000174a:	74a2                	ld	s1,40(sp)
    8000174c:	7902                	ld	s2,32(sp)
    8000174e:	69e2                	ld	s3,24(sp)
    80001750:	6a42                	ld	s4,16(sp)
    80001752:	6aa2                	ld	s5,8(sp)
    80001754:	6121                	addi	sp,sp,64
    80001756:	8082                	ret

0000000080001758 <reparent>:
reparent(struct proc *p)
    80001758:	7179                	addi	sp,sp,-48
    8000175a:	f406                	sd	ra,40(sp)
    8000175c:	f022                	sd	s0,32(sp)
    8000175e:	ec26                	sd	s1,24(sp)
    80001760:	e84a                	sd	s2,16(sp)
    80001762:	e44e                	sd	s3,8(sp)
    80001764:	e052                	sd	s4,0(sp)
    80001766:	1800                	addi	s0,sp,48
    80001768:	892a                	mv	s2,a0

    8000176a:	00008497          	auipc	s1,0x8
    8000176e:	d1648493          	addi	s1,s1,-746 # 80009480 <proc>
    if(pp->parent == p){
    80001772:	00008a17          	auipc	s4,0x8
    80001776:	89ea0a13          	addi	s4,s4,-1890 # 80009010 <initproc>

    8000177a:	0000e997          	auipc	s3,0xe
    8000177e:	90698993          	addi	s3,s3,-1786 # 8000f080 <tickslock>
    80001782:	a029                	j	8000178c <reparent+0x34>
    80001784:	17048493          	addi	s1,s1,368
    80001788:	01348d63          	beq	s1,s3,800017a2 <reparent+0x4a>
  for(pp = proc; pp < &proc[NPROC]; pp++){
    8000178c:	7c9c                	ld	a5,56(s1)
    8000178e:	ff279be3          	bne	a5,s2,80001784 <reparent+0x2c>
    if(pp->parent == p){
    80001792:	000a3503          	ld	a0,0(s4)
    80001796:	fc88                	sd	a0,56(s1)
      pp->parent = initproc;
    80001798:	00000097          	auipc	ra,0x0
    8000179c:	f4a080e7          	jalr	-182(ra) # 800016e2 <wakeup>
    800017a0:	b7d5                	j	80001784 <reparent+0x2c>
  }
    800017a2:	70a2                	ld	ra,40(sp)
    800017a4:	7402                	ld	s0,32(sp)
    800017a6:	64e2                	ld	s1,24(sp)
    800017a8:	6942                	ld	s2,16(sp)
    800017aa:	69a2                	ld	s3,8(sp)
    800017ac:	6a02                	ld	s4,0(sp)
    800017ae:	6145                	addi	sp,sp,48
    800017b0:	8082                	ret

00000000800017b2 <exit>:
exit(int status)
    800017b2:	7179                	addi	sp,sp,-48
    800017b4:	f406                	sd	ra,40(sp)
    800017b6:	f022                	sd	s0,32(sp)
    800017b8:	ec26                	sd	s1,24(sp)
    800017ba:	e84a                	sd	s2,16(sp)
    800017bc:	e44e                	sd	s3,8(sp)
    800017be:	e052                	sd	s4,0(sp)
    800017c0:	1800                	addi	s0,sp,48
    800017c2:	8a2a                	mv	s4,a0
{
    800017c4:	fffff097          	auipc	ra,0xfffff
    800017c8:	6ce080e7          	jalr	1742(ra) # 80000e92 <myproc>
    800017cc:	89aa                	mv	s3,a0

    800017ce:	00008797          	auipc	a5,0x8
    800017d2:	8427b783          	ld	a5,-1982(a5) # 80009010 <initproc>
    800017d6:	0d850493          	addi	s1,a0,216
    800017da:	15850913          	addi	s2,a0,344
    800017de:	02a79363          	bne	a5,a0,80001804 <exit+0x52>
  if(p == initproc)
    800017e2:	00007517          	auipc	a0,0x7
    800017e6:	9fe50513          	addi	a0,a0,-1538 # 800081e0 <etext+0x1e0>
    800017ea:	00004097          	auipc	ra,0x4
    800017ee:	47e080e7          	jalr	1150(ra) # 80005c68 <panic>
      struct file *f = p->ofile[fd];
    800017f2:	00002097          	auipc	ra,0x2
    800017f6:	268080e7          	jalr	616(ra) # 80003a5a <fileclose>
      fileclose(f);
    800017fa:	0004b023          	sd	zero,0(s1)
  // Close all open files.
    800017fe:	04a1                	addi	s1,s1,8
    80001800:	01248563          	beq	s1,s2,8000180a <exit+0x58>
  for(int fd = 0; fd < NOFILE; fd++){
    80001804:	6088                	ld	a0,0(s1)
    80001806:	f575                	bnez	a0,800017f2 <exit+0x40>
    80001808:	bfdd                	j	800017fe <exit+0x4c>

    8000180a:	00002097          	auipc	ra,0x2
    8000180e:	d84080e7          	jalr	-636(ra) # 8000358e <begin_op>
  begin_op();
    80001812:	1589b503          	ld	a0,344(s3)
    80001816:	00001097          	auipc	ra,0x1
    8000181a:	560080e7          	jalr	1376(ra) # 80002d76 <iput>
  iput(p->cwd);
    8000181e:	00002097          	auipc	ra,0x2
    80001822:	df0080e7          	jalr	-528(ra) # 8000360e <end_op>
  end_op();
    80001826:	1409bc23          	sd	zero,344(s3)

    8000182a:	00008497          	auipc	s1,0x8
    8000182e:	83e48493          	addi	s1,s1,-1986 # 80009068 <wait_lock>
    80001832:	8526                	mv	a0,s1
    80001834:	00005097          	auipc	ra,0x5
    80001838:	97e080e7          	jalr	-1666(ra) # 800061b2 <acquire>
  // Give any children to init.
    8000183c:	854e                	mv	a0,s3
    8000183e:	00000097          	auipc	ra,0x0
    80001842:	f1a080e7          	jalr	-230(ra) # 80001758 <reparent>
  // Parent might be sleeping in wait().
    80001846:	0389b503          	ld	a0,56(s3)
    8000184a:	00000097          	auipc	ra,0x0
    8000184e:	e98080e7          	jalr	-360(ra) # 800016e2 <wakeup>
  
    80001852:	854e                	mv	a0,s3
    80001854:	00005097          	auipc	ra,0x5
    80001858:	95e080e7          	jalr	-1698(ra) # 800061b2 <acquire>

    8000185c:	0349a623          	sw	s4,44(s3)
  p->xstate = status;
    80001860:	4795                	li	a5,5
    80001862:	00f9ac23          	sw	a5,24(s3)

    80001866:	8526                	mv	a0,s1
    80001868:	00005097          	auipc	ra,0x5
    8000186c:	9fe080e7          	jalr	-1538(ra) # 80006266 <release>
  // Jump into the scheduler, never to return.
    80001870:	00000097          	auipc	ra,0x0
    80001874:	bd4080e7          	jalr	-1068(ra) # 80001444 <sched>
  sched();
    80001878:	00007517          	auipc	a0,0x7
    8000187c:	97850513          	addi	a0,a0,-1672 # 800081f0 <etext+0x1f0>
    80001880:	00004097          	auipc	ra,0x4
    80001884:	3e8080e7          	jalr	1000(ra) # 80005c68 <panic>

0000000080001888 <kill>:

// Kill the process with the given pid.
// The victim won't exit until it tries to return
// to user space (see usertrap() in trap.c).
int
kill(int pid)
    80001888:	7179                	addi	sp,sp,-48
    8000188a:	f406                	sd	ra,40(sp)
    8000188c:	f022                	sd	s0,32(sp)
    8000188e:	ec26                	sd	s1,24(sp)
    80001890:	e84a                	sd	s2,16(sp)
    80001892:	e44e                	sd	s3,8(sp)
    80001894:	1800                	addi	s0,sp,48
    80001896:	892a                	mv	s2,a0
{
  struct proc *p;

    80001898:	00008497          	auipc	s1,0x8
    8000189c:	be848493          	addi	s1,s1,-1048 # 80009480 <proc>
    800018a0:	0000d997          	auipc	s3,0xd
    800018a4:	7e098993          	addi	s3,s3,2016 # 8000f080 <tickslock>
  for(p = proc; p < &proc[NPROC]; p++){
    800018a8:	8526                	mv	a0,s1
    800018aa:	00005097          	auipc	ra,0x5
    800018ae:	908080e7          	jalr	-1784(ra) # 800061b2 <acquire>
    acquire(&p->lock);
    800018b2:	589c                	lw	a5,48(s1)
    800018b4:	01278d63          	beq	a5,s2,800018ce <kill+0x46>
        // Wake process from sleep().
        p->state = RUNNABLE;
      }
      release(&p->lock);
      return 0;
    }
    800018b8:	8526                	mv	a0,s1
    800018ba:	00005097          	auipc	ra,0x5
    800018be:	9ac080e7          	jalr	-1620(ra) # 80006266 <release>

    800018c2:	17048493          	addi	s1,s1,368
    800018c6:	ff3491e3          	bne	s1,s3,800018a8 <kill+0x20>
    release(&p->lock);
  }
    800018ca:	557d                	li	a0,-1
    800018cc:	a829                	j	800018e6 <kill+0x5e>
    if(p->pid == pid){
    800018ce:	4785                	li	a5,1
    800018d0:	d49c                	sw	a5,40(s1)
      p->killed = 1;
    800018d2:	4c98                	lw	a4,24(s1)
    800018d4:	4789                	li	a5,2
    800018d6:	00f70f63          	beq	a4,a5,800018f4 <kill+0x6c>
      }
    800018da:	8526                	mv	a0,s1
    800018dc:	00005097          	auipc	ra,0x5
    800018e0:	98a080e7          	jalr	-1654(ra) # 80006266 <release>
      release(&p->lock);
    800018e4:	4501                	li	a0,0
  return -1;
    800018e6:	70a2                	ld	ra,40(sp)
    800018e8:	7402                	ld	s0,32(sp)
    800018ea:	64e2                	ld	s1,24(sp)
    800018ec:	6942                	ld	s2,16(sp)
    800018ee:	69a2                	ld	s3,8(sp)
    800018f0:	6145                	addi	sp,sp,48
    800018f2:	8082                	ret
        // Wake process from sleep().
    800018f4:	478d                	li	a5,3
    800018f6:	cc9c                	sw	a5,24(s1)
    800018f8:	b7cd                	j	800018da <kill+0x52>

00000000800018fa <either_copyout>:

// Copy to either a user address, or kernel address,
// depending on usr_dst.
// Returns 0 on success, -1 on error.
int
either_copyout(int user_dst, uint64 dst, void *src, uint64 len)
    800018fa:	7179                	addi	sp,sp,-48
    800018fc:	f406                	sd	ra,40(sp)
    800018fe:	f022                	sd	s0,32(sp)
    80001900:	ec26                	sd	s1,24(sp)
    80001902:	e84a                	sd	s2,16(sp)
    80001904:	e44e                	sd	s3,8(sp)
    80001906:	e052                	sd	s4,0(sp)
    80001908:	1800                	addi	s0,sp,48
    8000190a:	84aa                	mv	s1,a0
    8000190c:	892e                	mv	s2,a1
    8000190e:	89b2                	mv	s3,a2
    80001910:	8a36                	mv	s4,a3
{
    80001912:	fffff097          	auipc	ra,0xfffff
    80001916:	580080e7          	jalr	1408(ra) # 80000e92 <myproc>
  struct proc *p = myproc();
    8000191a:	c08d                	beqz	s1,8000193c <either_copyout+0x42>
  if(user_dst){
    8000191c:	86d2                	mv	a3,s4
    8000191e:	864e                	mv	a2,s3
    80001920:	85ca                	mv	a1,s2
    80001922:	6928                	ld	a0,80(a0)
    80001924:	fffff097          	auipc	ra,0xfffff
    80001928:	230080e7          	jalr	560(ra) # 80000b54 <copyout>
    return copyout(p->pagetable, dst, src, len);
  } else {
    memmove((char *)dst, src, len);
    return 0;
  }
    8000192c:	70a2                	ld	ra,40(sp)
    8000192e:	7402                	ld	s0,32(sp)
    80001930:	64e2                	ld	s1,24(sp)
    80001932:	6942                	ld	s2,16(sp)
    80001934:	69a2                	ld	s3,8(sp)
    80001936:	6a02                	ld	s4,0(sp)
    80001938:	6145                	addi	sp,sp,48
    8000193a:	8082                	ret
  } else {
    8000193c:	000a061b          	sext.w	a2,s4
    80001940:	85ce                	mv	a1,s3
    80001942:	854a                	mv	a0,s2
    80001944:	fffff097          	auipc	ra,0xfffff
    80001948:	8de080e7          	jalr	-1826(ra) # 80000222 <memmove>
    memmove((char *)dst, src, len);
    8000194c:	8526                	mv	a0,s1
    8000194e:	bff9                	j	8000192c <either_copyout+0x32>

0000000080001950 <either_copyin>:

// Copy from either a user address, or kernel address,
// depending on usr_src.
// Returns 0 on success, -1 on error.
int
either_copyin(void *dst, int user_src, uint64 src, uint64 len)
    80001950:	7179                	addi	sp,sp,-48
    80001952:	f406                	sd	ra,40(sp)
    80001954:	f022                	sd	s0,32(sp)
    80001956:	ec26                	sd	s1,24(sp)
    80001958:	e84a                	sd	s2,16(sp)
    8000195a:	e44e                	sd	s3,8(sp)
    8000195c:	e052                	sd	s4,0(sp)
    8000195e:	1800                	addi	s0,sp,48
    80001960:	892a                	mv	s2,a0
    80001962:	84ae                	mv	s1,a1
    80001964:	89b2                	mv	s3,a2
    80001966:	8a36                	mv	s4,a3
{
    80001968:	fffff097          	auipc	ra,0xfffff
    8000196c:	52a080e7          	jalr	1322(ra) # 80000e92 <myproc>
  struct proc *p = myproc();
    80001970:	c08d                	beqz	s1,80001992 <either_copyin+0x42>
  if(user_src){
    80001972:	86d2                	mv	a3,s4
    80001974:	864e                	mv	a2,s3
    80001976:	85ca                	mv	a1,s2
    80001978:	6928                	ld	a0,80(a0)
    8000197a:	fffff097          	auipc	ra,0xfffff
    8000197e:	266080e7          	jalr	614(ra) # 80000be0 <copyin>
    return copyin(p->pagetable, dst, src, len);
  } else {
    memmove(dst, (char*)src, len);
    return 0;
  }
    80001982:	70a2                	ld	ra,40(sp)
    80001984:	7402                	ld	s0,32(sp)
    80001986:	64e2                	ld	s1,24(sp)
    80001988:	6942                	ld	s2,16(sp)
    8000198a:	69a2                	ld	s3,8(sp)
    8000198c:	6a02                	ld	s4,0(sp)
    8000198e:	6145                	addi	sp,sp,48
    80001990:	8082                	ret
  } else {
    80001992:	000a061b          	sext.w	a2,s4
    80001996:	85ce                	mv	a1,s3
    80001998:	854a                	mv	a0,s2
    8000199a:	fffff097          	auipc	ra,0xfffff
    8000199e:	888080e7          	jalr	-1912(ra) # 80000222 <memmove>
    memmove(dst, (char*)src, len);
    800019a2:	8526                	mv	a0,s1
    800019a4:	bff9                	j	80001982 <either_copyin+0x32>

00000000800019a6 <procdump>:

// Print a process listing to console.  For debugging.
// Runs when user types ^P on console.
// No lock to avoid wedging a stuck machine further.
void
procdump(void)
    800019a6:	715d                	addi	sp,sp,-80
    800019a8:	e486                	sd	ra,72(sp)
    800019aa:	e0a2                	sd	s0,64(sp)
    800019ac:	fc26                	sd	s1,56(sp)
    800019ae:	f84a                	sd	s2,48(sp)
    800019b0:	f44e                	sd	s3,40(sp)
    800019b2:	f052                	sd	s4,32(sp)
    800019b4:	ec56                	sd	s5,24(sp)
    800019b6:	e85a                	sd	s6,16(sp)
    800019b8:	e45e                	sd	s7,8(sp)
    800019ba:	0880                	addi	s0,sp,80
  [RUNNING]   "run   ",
  [ZOMBIE]    "zombie"
  };
  struct proc *p;
  char *state;

    800019bc:	00006517          	auipc	a0,0x6
    800019c0:	68c50513          	addi	a0,a0,1676 # 80008048 <etext+0x48>
    800019c4:	00004097          	auipc	ra,0x4
    800019c8:	2ee080e7          	jalr	750(ra) # 80005cb2 <printf>
  printf("\n");
    800019cc:	00008497          	auipc	s1,0x8
    800019d0:	c1448493          	addi	s1,s1,-1004 # 800095e0 <proc+0x160>
    800019d4:	0000e917          	auipc	s2,0xe
    800019d8:	80c90913          	addi	s2,s2,-2036 # 8000f1e0 <bcache+0x148>
  for(p = proc; p < &proc[NPROC]; p++){
    if(p->state == UNUSED)
      continue;
    800019dc:	4b15                	li	s6,5
    if(p->state >= 0 && p->state < NELEM(states) && states[p->state])
      state = states[p->state];
    else
    800019de:	00007997          	auipc	s3,0x7
    800019e2:	82298993          	addi	s3,s3,-2014 # 80008200 <etext+0x200>
      state = "???";
    800019e6:	00007a97          	auipc	s5,0x7
    800019ea:	822a8a93          	addi	s5,s5,-2014 # 80008208 <etext+0x208>
    printf("%d %s %s", p->pid, state, p->name);
    800019ee:	00006a17          	auipc	s4,0x6
    800019f2:	65aa0a13          	addi	s4,s4,1626 # 80008048 <etext+0x48>
      continue;
    800019f6:	00007b97          	auipc	s7,0x7
    800019fa:	84ab8b93          	addi	s7,s7,-1974 # 80008240 <states.1715>
    800019fe:	a00d                	j	80001a20 <procdump+0x7a>
      state = "???";
    80001a00:	ed06a583          	lw	a1,-304(a3)
    80001a04:	8556                	mv	a0,s5
    80001a06:	00004097          	auipc	ra,0x4
    80001a0a:	2ac080e7          	jalr	684(ra) # 80005cb2 <printf>
    printf("%d %s %s", p->pid, state, p->name);
    80001a0e:	8552                	mv	a0,s4
    80001a10:	00004097          	auipc	ra,0x4
    80001a14:	2a2080e7          	jalr	674(ra) # 80005cb2 <printf>
  printf("\n");
    80001a18:	17048493          	addi	s1,s1,368
    80001a1c:	03248163          	beq	s1,s2,80001a3e <procdump+0x98>
  for(p = proc; p < &proc[NPROC]; p++){
    80001a20:	86a6                	mv	a3,s1
    80001a22:	eb84a783          	lw	a5,-328(s1)
    80001a26:	dbed                	beqz	a5,80001a18 <procdump+0x72>
    else
    80001a28:	864e                	mv	a2,s3
      continue;
    80001a2a:	fcfb6be3          	bltu	s6,a5,80001a00 <procdump+0x5a>
    80001a2e:	1782                	slli	a5,a5,0x20
    80001a30:	9381                	srli	a5,a5,0x20
    80001a32:	078e                	slli	a5,a5,0x3
    80001a34:	97de                	add	a5,a5,s7
    80001a36:	6390                	ld	a2,0(a5)
    80001a38:	f661                	bnez	a2,80001a00 <procdump+0x5a>
    else
    80001a3a:	864e                	mv	a2,s3
    80001a3c:	b7d1                	j	80001a00 <procdump+0x5a>
    printf("\n");
  }
    80001a3e:	60a6                	ld	ra,72(sp)
    80001a40:	6406                	ld	s0,64(sp)
    80001a42:	74e2                	ld	s1,56(sp)
    80001a44:	7942                	ld	s2,48(sp)
    80001a46:	79a2                	ld	s3,40(sp)
    80001a48:	7a02                	ld	s4,32(sp)
    80001a4a:	6ae2                	ld	s5,24(sp)
    80001a4c:	6b42                	ld	s6,16(sp)
    80001a4e:	6ba2                	ld	s7,8(sp)
    80001a50:	6161                	addi	sp,sp,80
    80001a52:	8082                	ret

0000000080001a54 <getnproc>:
}
    80001a54:	1141                	addi	sp,sp,-16
    80001a56:	e422                	sd	s0,8(sp)
    80001a58:	0800                	addi	s0,sp,16
    80001a5a:	4501                	li	a0,0
    80001a5c:	00008797          	auipc	a5,0x8
    80001a60:	a2478793          	addi	a5,a5,-1500 # 80009480 <proc>
    80001a64:	0000d697          	auipc	a3,0xd
    80001a68:	61c68693          	addi	a3,a3,1564 # 8000f080 <tickslock>
    80001a6c:	4f98                	lw	a4,24(a5)
    80001a6e:	00e03733          	snez	a4,a4
    80001a72:	953a                	add	a0,a0,a4
    80001a74:	17078793          	addi	a5,a5,368
    80001a78:	fed79ae3          	bne	a5,a3,80001a6c <getnproc+0x18>
    80001a7c:	6422                	ld	s0,8(sp)
    80001a7e:	0141                	addi	sp,sp,16
    80001a80:	8082                	ret

0000000080001a82 <swtch>:
    80001a82:	00153023          	sd	ra,0(a0)
    80001a86:	00253423          	sd	sp,8(a0)
    80001a8a:	e900                	sd	s0,16(a0)
    80001a8c:	ed04                	sd	s1,24(a0)
    80001a8e:	03253023          	sd	s2,32(a0)
    80001a92:	03353423          	sd	s3,40(a0)
    80001a96:	03453823          	sd	s4,48(a0)
    80001a9a:	03553c23          	sd	s5,56(a0)
    80001a9e:	05653023          	sd	s6,64(a0)
    80001aa2:	05753423          	sd	s7,72(a0)
    80001aa6:	05853823          	sd	s8,80(a0)
    80001aaa:	05953c23          	sd	s9,88(a0)
    80001aae:	07a53023          	sd	s10,96(a0)
    80001ab2:	07b53423          	sd	s11,104(a0)
    80001ab6:	0005b083          	ld	ra,0(a1)
    80001aba:	0085b103          	ld	sp,8(a1)
    80001abe:	6980                	ld	s0,16(a1)
    80001ac0:	6d84                	ld	s1,24(a1)
    80001ac2:	0205b903          	ld	s2,32(a1)
    80001ac6:	0285b983          	ld	s3,40(a1)
    80001aca:	0305ba03          	ld	s4,48(a1)
    80001ace:	0385ba83          	ld	s5,56(a1)
    80001ad2:	0405bb03          	ld	s6,64(a1)
    80001ad6:	0485bb83          	ld	s7,72(a1)
    80001ada:	0505bc03          	ld	s8,80(a1)
    80001ade:	0585bc83          	ld	s9,88(a1)
    80001ae2:	0605bd03          	ld	s10,96(a1)
    80001ae6:	0685bd83          	ld	s11,104(a1)
    80001aea:	8082                	ret

0000000080001aec <trapinit>:

extern int devintr();

void
trapinit(void)
{
    80001aec:	1141                	addi	sp,sp,-16
    80001aee:	e406                	sd	ra,8(sp)
    80001af0:	e022                	sd	s0,0(sp)
    80001af2:	0800                	addi	s0,sp,16
  initlock(&tickslock, "time");
    80001af4:	00006597          	auipc	a1,0x6
    80001af8:	77c58593          	addi	a1,a1,1916 # 80008270 <states.1715+0x30>
    80001afc:	0000d517          	auipc	a0,0xd
    80001b00:	58450513          	addi	a0,a0,1412 # 8000f080 <tickslock>
    80001b04:	00004097          	auipc	ra,0x4
    80001b08:	61e080e7          	jalr	1566(ra) # 80006122 <initlock>
}
    80001b0c:	60a2                	ld	ra,8(sp)
    80001b0e:	6402                	ld	s0,0(sp)
    80001b10:	0141                	addi	sp,sp,16
    80001b12:	8082                	ret

0000000080001b14 <trapinithart>:

// set up to take exceptions and traps while in the kernel.
void
trapinithart(void)
{
    80001b14:	1141                	addi	sp,sp,-16
    80001b16:	e422                	sd	s0,8(sp)
    80001b18:	0800                	addi	s0,sp,16
  asm volatile("csrw stvec, %0" : : "r" (x));
    80001b1a:	00003797          	auipc	a5,0x3
    80001b1e:	55678793          	addi	a5,a5,1366 # 80005070 <kernelvec>
    80001b22:	10579073          	csrw	stvec,a5
  w_stvec((uint64)kernelvec);
}
    80001b26:	6422                	ld	s0,8(sp)
    80001b28:	0141                	addi	sp,sp,16
    80001b2a:	8082                	ret

0000000080001b2c <usertrapret>:
                  p->trapframe->sa2 = p->trapframe->a2;
                  p->trapframe->sa3 = p->trapframe->a3;
                  p->trapframe->sa4 = p->trapframe->a4;
                  p->trapframe->sa5 = p->trapframe->a5;
                  p->trapframe->sa6 = p->trapframe->a6;
                  p->trapframe->sa7 = p->trapframe->a7;
    80001b2c:	1141                	addi	sp,sp,-16
    80001b2e:	e406                	sd	ra,8(sp)
    80001b30:	e022                	sd	s0,0(sp)
    80001b32:	0800                	addi	s0,sp,16
                  p->trapframe->ss2 = p->trapframe->s2;
    80001b34:	fffff097          	auipc	ra,0xfffff
    80001b38:	35e080e7          	jalr	862(ra) # 80000e92 <myproc>
  asm volatile("csrr %0, sstatus" : "=r" (x) );
    80001b3c:	100027f3          	csrr	a5,sstatus
}
    80001b40:	9bf5                	andi	a5,a5,-3
  asm volatile("csrw sstatus, %0" : : "r" (x));
    80001b42:	10079073          	csrw	sstatus,a5
                  p->trapframe->ss5 = p->trapframe->s5;
                  p->trapframe->ss6 = p->trapframe->s6;
                  p->trapframe->ss7 = p->trapframe->s7;
                  p->trapframe->ss8 = p->trapframe->s8;
                  p->trapframe->ss9 = p->trapframe->s9;
                  p->trapframe->ss10 = p->trapframe->s10;
    80001b46:	00005617          	auipc	a2,0x5
    80001b4a:	4ba60613          	addi	a2,a2,1210 # 80007000 <_trampoline>
    80001b4e:	00005697          	auipc	a3,0x5
    80001b52:	4b268693          	addi	a3,a3,1202 # 80007000 <_trampoline>
    80001b56:	8e91                	sub	a3,a3,a2
    80001b58:	040007b7          	lui	a5,0x4000
    80001b5c:	17fd                	addi	a5,a5,-1
    80001b5e:	07b2                	slli	a5,a5,0xc
    80001b60:	96be                	add	a3,a3,a5
  asm volatile("csrw stvec, %0" : : "r" (x));
    80001b62:	10569073          	csrw	stvec,a3
                  p->trapframe->ss11 = p->trapframe->s11;
                  p->trapframe->st3 = p->trapframe->t3;
                  p->trapframe->st4 = p->trapframe->t4;
                  p->trapframe->st5 = p->trapframe->t5;
    80001b66:	7138                	ld	a4,96(a0)
}
    80001b68:	180026f3          	csrr	a3,satp
    80001b6c:	e314                	sd	a3,0(a4)
                  p->trapframe->st6 = p->trapframe->t6;
    80001b6e:	7138                	ld	a4,96(a0)
    80001b70:	6134                	ld	a3,64(a0)
    80001b72:	6585                	lui	a1,0x1
    80001b74:	96ae                	add	a3,a3,a1
    80001b76:	e714                	sd	a3,8(a4)
                  p->trapframe->epc = p->handler;
    80001b78:	7138                	ld	a4,96(a0)
    80001b7a:	00000697          	auipc	a3,0x0
    80001b7e:	13868693          	addi	a3,a3,312 # 80001cb2 <usertrap>
    80001b82:	eb14                	sd	a3,16(a4)
              }
    80001b84:	7138                	ld	a4,96(a0)
// read and write tp, the thread pointer, which holds
    80001b86:	8692                	mv	a3,tp
    80001b88:	f314                	sd	a3,32(a4)
  asm volatile("csrr %0, sstatus" : "=r" (x) );
    80001b8a:	100026f3          	csrr	a3,sstatus
      }
    // ok
  } else {
    printf("usertrap(): unexpected scause %p pid=%d\n", r_scause(), p->pid);
    printf("            sepc=%p stval=%p\n", r_sepc(), r_stval());
    p->killed = 1;
    80001b8e:	eff6f693          	andi	a3,a3,-257
  }
    80001b92:	0206e693          	ori	a3,a3,32
  asm volatile("csrw sstatus, %0" : : "r" (x));
    80001b96:	10069073          	csrw	sstatus,a3

  if(p->killed)
    exit(-1);

    80001b9a:	7138                	ld	a4,96(a0)
  asm volatile("csrw sepc, %0" : : "r" (x));
    80001b9c:	6f18                	ld	a4,24(a4)
    80001b9e:	14171073          	csrw	sepc,a4
  // give up the CPU if this is a timer interrupt.
  if(which_dev == 2)
    yield();
    80001ba2:	692c                	ld	a1,80(a0)
    80001ba4:	81b1                	srli	a1,a1,0xc

  usertrapret();
}

//
    80001ba6:	00005717          	auipc	a4,0x5
    80001baa:	4ea70713          	addi	a4,a4,1258 # 80007090 <userret>
    80001bae:	8f11                	sub	a4,a4,a2
    80001bb0:	97ba                	add	a5,a5,a4
// return to user space
    80001bb2:	577d                	li	a4,-1
    80001bb4:	177e                	slli	a4,a4,0x3f
    80001bb6:	8dd9                	or	a1,a1,a4
    80001bb8:	02000537          	lui	a0,0x2000
    80001bbc:	157d                	addi	a0,a0,-1
    80001bbe:	0536                	slli	a0,a0,0xd
    80001bc0:	9782                	jalr	a5
//
    80001bc2:	60a2                	ld	ra,8(sp)
    80001bc4:	6402                	ld	s0,0(sp)
    80001bc6:	0141                	addi	sp,sp,16
    80001bc8:	8082                	ret

0000000080001bca <clockintr>:
  // set S Exception Program Counter to the saved user pc.
  w_sepc(p->trapframe->epc);

  // tell trampoline.S the user page table to switch to.
  uint64 satp = MAKE_SATP(p->pagetable);

    80001bca:	1101                	addi	sp,sp,-32
    80001bcc:	ec06                	sd	ra,24(sp)
    80001bce:	e822                	sd	s0,16(sp)
    80001bd0:	e426                	sd	s1,8(sp)
    80001bd2:	1000                	addi	s0,sp,32
  // jump to trampoline.S at the top of memory, which 
    80001bd4:	0000d497          	auipc	s1,0xd
    80001bd8:	4ac48493          	addi	s1,s1,1196 # 8000f080 <tickslock>
    80001bdc:	8526                	mv	a0,s1
    80001bde:	00004097          	auipc	ra,0x4
    80001be2:	5d4080e7          	jalr	1492(ra) # 800061b2 <acquire>
  // switches to the user page table, restores user registers,
    80001be6:	00007517          	auipc	a0,0x7
    80001bea:	43250513          	addi	a0,a0,1074 # 80009018 <ticks>
    80001bee:	411c                	lw	a5,0(a0)
    80001bf0:	2785                	addiw	a5,a5,1
    80001bf2:	c11c                	sw	a5,0(a0)
  // and switches to user mode with sret.
    80001bf4:	00000097          	auipc	ra,0x0
    80001bf8:	aee080e7          	jalr	-1298(ra) # 800016e2 <wakeup>
  uint64 fn = TRAMPOLINE + (userret - trampoline);
    80001bfc:	8526                	mv	a0,s1
    80001bfe:	00004097          	auipc	ra,0x4
    80001c02:	668080e7          	jalr	1640(ra) # 80006266 <release>
  ((void (*)(uint64,uint64))fn)(TRAPFRAME, satp);
    80001c06:	60e2                	ld	ra,24(sp)
    80001c08:	6442                	ld	s0,16(sp)
    80001c0a:	64a2                	ld	s1,8(sp)
    80001c0c:	6105                	addi	sp,sp,32
    80001c0e:	8082                	ret

0000000080001c10 <devintr>:
// on whatever the current kernel stack is.
void 
kerneltrap()
{
  int which_dev = 0;
  uint64 sepc = r_sepc();
    80001c10:	1101                	addi	sp,sp,-32
    80001c12:	ec06                	sd	ra,24(sp)
    80001c14:	e822                	sd	s0,16(sp)
    80001c16:	e426                	sd	s1,8(sp)
    80001c18:	1000                	addi	s0,sp,32

    80001c1a:	14202773          	csrr	a4,scause
  uint64 sstatus = r_sstatus();
  uint64 scause = r_scause();
  
    80001c1e:	00074d63          	bltz	a4,80001c38 <devintr+0x28>
  // so restore trap registers for use by kernelvec.S's sepc instruction.
  w_sepc(sepc);
  w_sstatus(sstatus);
}

void
    80001c22:	57fd                	li	a5,-1
    80001c24:	17fe                	slli	a5,a5,0x3f
    80001c26:	0785                	addi	a5,a5,1
// check if it's an external interrupt or software interrupt,
// and handle it.
// returns 2 if timer interrupt,
// 1 if other device,
// 0 if not recognized.
int
    80001c28:	4501                	li	a0,0
void
    80001c2a:	06f70363          	beq	a4,a5,80001c90 <devintr+0x80>
devintr()
{
    80001c2e:	60e2                	ld	ra,24(sp)
    80001c30:	6442                	ld	s0,16(sp)
    80001c32:	64a2                	ld	s1,8(sp)
    80001c34:	6105                	addi	sp,sp,32
    80001c36:	8082                	ret
  if((sstatus & SSTATUS_SPP) == 0)
    80001c38:	0ff77793          	andi	a5,a4,255
  
    80001c3c:	46a5                	li	a3,9
    80001c3e:	fed792e3          	bne	a5,a3,80001c22 <devintr+0x12>

    80001c42:	00003097          	auipc	ra,0x3
    80001c46:	536080e7          	jalr	1334(ra) # 80005178 <plic_claim>
    80001c4a:	84aa                	mv	s1,a0
    printf("scause %p\n", scause);
    80001c4c:	47a9                	li	a5,10
    80001c4e:	02f50763          	beq	a0,a5,80001c7c <devintr+0x6c>
    panic("kerneltrap");
    80001c52:	4785                	li	a5,1
    80001c54:	02f50963          	beq	a0,a5,80001c86 <devintr+0x76>

    80001c58:	4505                	li	a0,1

    80001c5a:	d8f1                	beqz	s1,80001c2e <devintr+0x1e>
  // give up the CPU if this is a timer interrupt.
    80001c5c:	85a6                	mv	a1,s1
    80001c5e:	00006517          	auipc	a0,0x6
    80001c62:	61a50513          	addi	a0,a0,1562 # 80008278 <states.1715+0x38>
    80001c66:	00004097          	auipc	ra,0x4
    80001c6a:	04c080e7          	jalr	76(ra) # 80005cb2 <printf>
  w_sstatus(sstatus);
    80001c6e:	8526                	mv	a0,s1
    80001c70:	00003097          	auipc	ra,0x3
    80001c74:	52c080e7          	jalr	1324(ra) # 8000519c <plic_complete>

    80001c78:	4505                	li	a0,1
    80001c7a:	bf55                	j	80001c2e <devintr+0x1e>
    printf("sepc=%p stval=%p\n", r_sepc(), r_stval());
    80001c7c:	00004097          	auipc	ra,0x4
    80001c80:	456080e7          	jalr	1110(ra) # 800060d2 <uartintr>
    80001c84:	b7ed                	j	80001c6e <devintr+0x5e>
  }
    80001c86:	00004097          	auipc	ra,0x4
    80001c8a:	9f6080e7          	jalr	-1546(ra) # 8000567c <virtio_disk_intr>
    80001c8e:	b7c5                	j	80001c6e <devintr+0x5e>
  ticks++;
    80001c90:	fffff097          	auipc	ra,0xfffff
    80001c94:	1d6080e7          	jalr	470(ra) # 80000e66 <cpuid>
    80001c98:	c901                	beqz	a0,80001ca8 <devintr+0x98>
  asm volatile("csrr %0, sip" : "=r" (x) );
    80001c9a:	144027f3          	csrr	a5,sip
// and handle it.
    80001c9e:	9bf5                	andi	a5,a5,-3
  asm volatile("csrw sip, %0" : : "r" (x));
    80001ca0:	14479073          	csrw	sip,a5
// 1 if other device,
    80001ca4:	4509                	li	a0,2
    80001ca6:	b761                	j	80001c2e <devintr+0x1e>
  wakeup(&ticks);
    80001ca8:	00000097          	auipc	ra,0x0
    80001cac:	f22080e7          	jalr	-222(ra) # 80001bca <clockintr>
    80001cb0:	b7ed                	j	80001c9a <devintr+0x8a>

0000000080001cb2 <usertrap>:
{
    80001cb2:	1101                	addi	sp,sp,-32
    80001cb4:	ec06                	sd	ra,24(sp)
    80001cb6:	e822                	sd	s0,16(sp)
    80001cb8:	e426                	sd	s1,8(sp)
    80001cba:	e04a                	sd	s2,0(sp)
    80001cbc:	1000                	addi	s0,sp,32
  asm volatile("csrr %0, sstatus" : "=r" (x) );
    80001cbe:	100027f3          	csrr	a5,sstatus
  if((r_sstatus() & SSTATUS_SPP) != 0)
    80001cc2:	1007f793          	andi	a5,a5,256
    80001cc6:	e3ad                	bnez	a5,80001d28 <usertrap+0x76>
  asm volatile("csrw stvec, %0" : : "r" (x));
    80001cc8:	00003797          	auipc	a5,0x3
    80001ccc:	3a878793          	addi	a5,a5,936 # 80005070 <kernelvec>
    80001cd0:	10579073          	csrw	stvec,a5
  struct proc *p = myproc();
    80001cd4:	fffff097          	auipc	ra,0xfffff
    80001cd8:	1be080e7          	jalr	446(ra) # 80000e92 <myproc>
    80001cdc:	84aa                	mv	s1,a0
  p->trapframe->epc = r_sepc();
    80001cde:	713c                	ld	a5,96(a0)
  asm volatile("csrr %0, sepc" : "=r" (x) );
    80001ce0:	14102773          	csrr	a4,sepc
    80001ce4:	ef98                	sd	a4,24(a5)

    80001ce6:	14202773          	csrr	a4,scause
  if(r_scause() == 8){
    80001cea:	47a1                	li	a5,8
    80001cec:	04f71c63          	bne	a4,a5,80001d44 <usertrap+0x92>
    if(p->killed)
    80001cf0:	551c                	lw	a5,40(a0)
    80001cf2:	e3b9                	bnez	a5,80001d38 <usertrap+0x86>
    p->trapframe->epc += 4;
    80001cf4:	70b8                	ld	a4,96(s1)
    80001cf6:	6f1c                	ld	a5,24(a4)
    80001cf8:	0791                	addi	a5,a5,4
    80001cfa:	ef1c                	sd	a5,24(a4)
  asm volatile("csrr %0, sstatus" : "=r" (x) );
    80001cfc:	100027f3          	csrr	a5,sstatus
}
    80001d00:	0027e793          	ori	a5,a5,2
  asm volatile("csrw sstatus, %0" : : "r" (x));
    80001d04:	10079073          	csrw	sstatus,a5
    syscall();
    80001d08:	00000097          	auipc	ra,0x0
    80001d0c:	2e0080e7          	jalr	736(ra) # 80001fe8 <syscall>
                  p->trapframe->ssp = p->trapframe->sp;
    80001d10:	549c                	lw	a5,40(s1)
    80001d12:	ebc1                	bnez	a5,80001da2 <usertrap+0xf0>
                  p->trapframe->ss1 = p->trapframe->s1;
    80001d14:	00000097          	auipc	ra,0x0
    80001d18:	e18080e7          	jalr	-488(ra) # 80001b2c <usertrapret>
                  p->trapframe->sa0 = p->trapframe->a0;
    80001d1c:	60e2                	ld	ra,24(sp)
    80001d1e:	6442                	ld	s0,16(sp)
    80001d20:	64a2                	ld	s1,8(sp)
    80001d22:	6902                	ld	s2,0(sp)
    80001d24:	6105                	addi	sp,sp,32
    80001d26:	8082                	ret
    panic("usertrap: not from user mode");
    80001d28:	00006517          	auipc	a0,0x6
    80001d2c:	57050513          	addi	a0,a0,1392 # 80008298 <states.1715+0x58>
    80001d30:	00004097          	auipc	ra,0x4
    80001d34:	f38080e7          	jalr	-200(ra) # 80005c68 <panic>
      exit(-1);
    80001d38:	557d                	li	a0,-1
    80001d3a:	00000097          	auipc	ra,0x0
    80001d3e:	a78080e7          	jalr	-1416(ra) # 800017b2 <exit>
    80001d42:	bf4d                	j	80001cf4 <usertrap+0x42>
  } else if((which_dev = devintr()) != 0){
    80001d44:	00000097          	auipc	ra,0x0
    80001d48:	ecc080e7          	jalr	-308(ra) # 80001c10 <devintr>
    80001d4c:	892a                	mv	s2,a0
    80001d4e:	c501                	beqz	a0,80001d56 <usertrap+0xa4>
                  p->trapframe->ssp = p->trapframe->sp;
    80001d50:	549c                	lw	a5,40(s1)
    80001d52:	c3a1                	beqz	a5,80001d92 <usertrap+0xe0>
    80001d54:	a815                	j	80001d88 <usertrap+0xd6>

    80001d56:	142025f3          	csrr	a1,scause
              p->currticks++;
    80001d5a:	5890                	lw	a2,48(s1)
    80001d5c:	00006517          	auipc	a0,0x6
    80001d60:	55c50513          	addi	a0,a0,1372 # 800082b8 <states.1715+0x78>
    80001d64:	00004097          	auipc	ra,0x4
    80001d68:	f4e080e7          	jalr	-178(ra) # 80005cb2 <printf>
  asm volatile("csrr %0, sepc" : "=r" (x) );
    80001d6c:	141025f3          	csrr	a1,sepc

    80001d70:	14302673          	csrr	a2,stval
              if(p->currticks % p->ticks == 0 && p->handlerlock){
    80001d74:	00006517          	auipc	a0,0x6
    80001d78:	57450513          	addi	a0,a0,1396 # 800082e8 <states.1715+0xa8>
    80001d7c:	00004097          	auipc	ra,0x4
    80001d80:	f36080e7          	jalr	-202(ra) # 80005cb2 <printf>
                  p->handlerlock = 0;
    80001d84:	4785                	li	a5,1
    80001d86:	d49c                	sw	a5,40(s1)
                  p->trapframe->sgp = p->trapframe->gp;
    80001d88:	557d                	li	a0,-1
    80001d8a:	00000097          	auipc	ra,0x0
    80001d8e:	a28080e7          	jalr	-1496(ra) # 800017b2 <exit>
                  p->trapframe->st1 = p->trapframe->t1;
    80001d92:	4789                	li	a5,2
    80001d94:	f8f910e3          	bne	s2,a5,80001d14 <usertrap+0x62>
                  p->trapframe->st2 = p->trapframe->t2;
    80001d98:	fffff097          	auipc	ra,0xfffff
    80001d9c:	782080e7          	jalr	1922(ra) # 8000151a <yield>
    80001da0:	bf95                	j	80001d14 <usertrap+0x62>
  int which_dev = 0;
    80001da2:	4901                	li	s2,0
    80001da4:	b7d5                	j	80001d88 <usertrap+0xd6>

0000000080001da6 <kerneltrap>:
  // we're about to switch the destination of traps from
    80001da6:	7179                	addi	sp,sp,-48
    80001da8:	f406                	sd	ra,40(sp)
    80001daa:	f022                	sd	s0,32(sp)
    80001dac:	ec26                	sd	s1,24(sp)
    80001dae:	e84a                	sd	s2,16(sp)
    80001db0:	e44e                	sd	s3,8(sp)
    80001db2:	1800                	addi	s0,sp,48
  asm volatile("csrr %0, sepc" : "=r" (x) );
    80001db4:	14102973          	csrr	s2,sepc
  asm volatile("csrr %0, sstatus" : "=r" (x) );
    80001db8:	100024f3          	csrr	s1,sstatus

    80001dbc:	142029f3          	csrr	s3,scause
  w_stvec(TRAMPOLINE + (uservec - trampoline));
    80001dc0:	1004f793          	andi	a5,s1,256
    80001dc4:	cb85                	beqz	a5,80001df4 <kerneltrap+0x4e>
  asm volatile("csrr %0, sstatus" : "=r" (x) );
    80001dc6:	100027f3          	csrr	a5,sstatus

    80001dca:	8b89                	andi	a5,a5,2
  // set up trapframe values that uservec will need when
    80001dcc:	ef85                	bnez	a5,80001e04 <kerneltrap+0x5e>
  p->trapframe->kernel_sp = p->kstack + PGSIZE; // process's kernel stack
    80001dce:	00000097          	auipc	ra,0x0
    80001dd2:	e42080e7          	jalr	-446(ra) # 80001c10 <devintr>
    80001dd6:	cd1d                	beqz	a0,80001e14 <kerneltrap+0x6e>
  // set S Previous Privilege mode to User.
    80001dd8:	4789                	li	a5,2
    80001dda:	06f50a63          	beq	a0,a5,80001e4e <kerneltrap+0xa8>
  asm volatile("csrw sepc, %0" : : "r" (x));
    80001dde:	14191073          	csrw	sepc,s2
  asm volatile("csrw sstatus, %0" : : "r" (x));
    80001de2:	10049073          	csrw	sstatus,s1
  w_sepc(p->trapframe->epc);
    80001de6:	70a2                	ld	ra,40(sp)
    80001de8:	7402                	ld	s0,32(sp)
    80001dea:	64e2                	ld	s1,24(sp)
    80001dec:	6942                	ld	s2,16(sp)
    80001dee:	69a2                	ld	s3,8(sp)
    80001df0:	6145                	addi	sp,sp,48
    80001df2:	8082                	ret

    80001df4:	00006517          	auipc	a0,0x6
    80001df8:	51450513          	addi	a0,a0,1300 # 80008308 <states.1715+0xc8>
    80001dfc:	00004097          	auipc	ra,0x4
    80001e00:	e6c080e7          	jalr	-404(ra) # 80005c68 <panic>
  // the process next re-enters the kernel.
    80001e04:	00006517          	auipc	a0,0x6
    80001e08:	52c50513          	addi	a0,a0,1324 # 80008330 <states.1715+0xf0>
    80001e0c:	00004097          	auipc	ra,0x4
    80001e10:	e5c080e7          	jalr	-420(ra) # 80005c68 <panic>
  p->trapframe->kernel_trap = (uint64)usertrap;
    80001e14:	85ce                	mv	a1,s3
    80001e16:	00006517          	auipc	a0,0x6
    80001e1a:	53a50513          	addi	a0,a0,1338 # 80008350 <states.1715+0x110>
    80001e1e:	00004097          	auipc	ra,0x4
    80001e22:	e94080e7          	jalr	-364(ra) # 80005cb2 <printf>
  asm volatile("csrr %0, sepc" : "=r" (x) );
    80001e26:	141025f3          	csrr	a1,sepc

    80001e2a:	14302673          	csrr	a2,stval
  p->trapframe->kernel_hartid = r_tp();         // hartid for cpuid()
    80001e2e:	00006517          	auipc	a0,0x6
    80001e32:	53250513          	addi	a0,a0,1330 # 80008360 <states.1715+0x120>
    80001e36:	00004097          	auipc	ra,0x4
    80001e3a:	e7c080e7          	jalr	-388(ra) # 80005cb2 <printf>

    80001e3e:	00006517          	auipc	a0,0x6
    80001e42:	53a50513          	addi	a0,a0,1338 # 80008378 <states.1715+0x138>
    80001e46:	00004097          	auipc	ra,0x4
    80001e4a:	e22080e7          	jalr	-478(ra) # 80005c68 <panic>
  // set S Previous Privilege mode to User.
    80001e4e:	fffff097          	auipc	ra,0xfffff
    80001e52:	044080e7          	jalr	68(ra) # 80000e92 <myproc>
    80001e56:	d541                	beqz	a0,80001dde <kerneltrap+0x38>
    80001e58:	fffff097          	auipc	ra,0xfffff
    80001e5c:	03a080e7          	jalr	58(ra) # 80000e92 <myproc>
    80001e60:	4d18                	lw	a4,24(a0)
    80001e62:	4791                	li	a5,4
    80001e64:	f6f71de3          	bne	a4,a5,80001dde <kerneltrap+0x38>
  unsigned long x = r_sstatus();
    80001e68:	fffff097          	auipc	ra,0xfffff
    80001e6c:	6b2080e7          	jalr	1714(ra) # 8000151a <yield>
    80001e70:	b7bd                	j	80001dde <kerneltrap+0x38>

0000000080001e72 <argraw>:
  return strlen(buf);
}

static uint64
argraw(int n)
{
    80001e72:	1101                	addi	sp,sp,-32
    80001e74:	ec06                	sd	ra,24(sp)
    80001e76:	e822                	sd	s0,16(sp)
    80001e78:	e426                	sd	s1,8(sp)
    80001e7a:	1000                	addi	s0,sp,32
    80001e7c:	84aa                	mv	s1,a0
  struct proc *p = myproc();
    80001e7e:	fffff097          	auipc	ra,0xfffff
    80001e82:	014080e7          	jalr	20(ra) # 80000e92 <myproc>
  switch (n) {
    80001e86:	4795                	li	a5,5
    80001e88:	0497e163          	bltu	a5,s1,80001eca <argraw+0x58>
    80001e8c:	048a                	slli	s1,s1,0x2
    80001e8e:	00006717          	auipc	a4,0x6
    80001e92:	5ea70713          	addi	a4,a4,1514 # 80008478 <states.1715+0x238>
    80001e96:	94ba                	add	s1,s1,a4
    80001e98:	409c                	lw	a5,0(s1)
    80001e9a:	97ba                	add	a5,a5,a4
    80001e9c:	8782                	jr	a5
  case 0:
    return p->trapframe->a0;
    80001e9e:	713c                	ld	a5,96(a0)
    80001ea0:	7ba8                	ld	a0,112(a5)
  case 5:
    return p->trapframe->a5;
  }
  panic("argraw");
  return -1;
}
    80001ea2:	60e2                	ld	ra,24(sp)
    80001ea4:	6442                	ld	s0,16(sp)
    80001ea6:	64a2                	ld	s1,8(sp)
    80001ea8:	6105                	addi	sp,sp,32
    80001eaa:	8082                	ret
    return p->trapframe->a1;
    80001eac:	713c                	ld	a5,96(a0)
    80001eae:	7fa8                	ld	a0,120(a5)
    80001eb0:	bfcd                	j	80001ea2 <argraw+0x30>
    return p->trapframe->a2;
    80001eb2:	713c                	ld	a5,96(a0)
    80001eb4:	63c8                	ld	a0,128(a5)
    80001eb6:	b7f5                	j	80001ea2 <argraw+0x30>
    return p->trapframe->a3;
    80001eb8:	713c                	ld	a5,96(a0)
    80001eba:	67c8                	ld	a0,136(a5)
    80001ebc:	b7dd                	j	80001ea2 <argraw+0x30>
    return p->trapframe->a4;
    80001ebe:	713c                	ld	a5,96(a0)
    80001ec0:	6bc8                	ld	a0,144(a5)
    80001ec2:	b7c5                	j	80001ea2 <argraw+0x30>
    return p->trapframe->a5;
    80001ec4:	713c                	ld	a5,96(a0)
    80001ec6:	6fc8                	ld	a0,152(a5)
    80001ec8:	bfe9                	j	80001ea2 <argraw+0x30>
  panic("argraw");
    80001eca:	00006517          	auipc	a0,0x6
    80001ece:	4be50513          	addi	a0,a0,1214 # 80008388 <states.1715+0x148>
    80001ed2:	00004097          	auipc	ra,0x4
    80001ed6:	d96080e7          	jalr	-618(ra) # 80005c68 <panic>

0000000080001eda <fetchaddr>:
{
    80001eda:	1101                	addi	sp,sp,-32
    80001edc:	ec06                	sd	ra,24(sp)
    80001ede:	e822                	sd	s0,16(sp)
    80001ee0:	e426                	sd	s1,8(sp)
    80001ee2:	e04a                	sd	s2,0(sp)
    80001ee4:	1000                	addi	s0,sp,32
    80001ee6:	84aa                	mv	s1,a0
    80001ee8:	892e                	mv	s2,a1
  struct proc *p = myproc();
    80001eea:	fffff097          	auipc	ra,0xfffff
    80001eee:	fa8080e7          	jalr	-88(ra) # 80000e92 <myproc>
  if(addr >= p->sz || addr+sizeof(uint64) > p->sz)
    80001ef2:	653c                	ld	a5,72(a0)
    80001ef4:	02f4f863          	bgeu	s1,a5,80001f24 <fetchaddr+0x4a>
    80001ef8:	00848713          	addi	a4,s1,8
    80001efc:	02e7e663          	bltu	a5,a4,80001f28 <fetchaddr+0x4e>
  if(copyin(p->pagetable, (char *)ip, addr, sizeof(*ip)) != 0)
    80001f00:	46a1                	li	a3,8
    80001f02:	8626                	mv	a2,s1
    80001f04:	85ca                	mv	a1,s2
    80001f06:	6928                	ld	a0,80(a0)
    80001f08:	fffff097          	auipc	ra,0xfffff
    80001f0c:	cd8080e7          	jalr	-808(ra) # 80000be0 <copyin>
    80001f10:	00a03533          	snez	a0,a0
    80001f14:	40a00533          	neg	a0,a0
}
    80001f18:	60e2                	ld	ra,24(sp)
    80001f1a:	6442                	ld	s0,16(sp)
    80001f1c:	64a2                	ld	s1,8(sp)
    80001f1e:	6902                	ld	s2,0(sp)
    80001f20:	6105                	addi	sp,sp,32
    80001f22:	8082                	ret
    return -1;
    80001f24:	557d                	li	a0,-1
    80001f26:	bfcd                	j	80001f18 <fetchaddr+0x3e>
    80001f28:	557d                	li	a0,-1
    80001f2a:	b7fd                	j	80001f18 <fetchaddr+0x3e>

0000000080001f2c <fetchstr>:
{
    80001f2c:	7179                	addi	sp,sp,-48
    80001f2e:	f406                	sd	ra,40(sp)
    80001f30:	f022                	sd	s0,32(sp)
    80001f32:	ec26                	sd	s1,24(sp)
    80001f34:	e84a                	sd	s2,16(sp)
    80001f36:	e44e                	sd	s3,8(sp)
    80001f38:	1800                	addi	s0,sp,48
    80001f3a:	892a                	mv	s2,a0
    80001f3c:	84ae                	mv	s1,a1
    80001f3e:	89b2                	mv	s3,a2
  struct proc *p = myproc();
    80001f40:	fffff097          	auipc	ra,0xfffff
    80001f44:	f52080e7          	jalr	-174(ra) # 80000e92 <myproc>
  int err = copyinstr(p->pagetable, buf, addr, max);
    80001f48:	86ce                	mv	a3,s3
    80001f4a:	864a                	mv	a2,s2
    80001f4c:	85a6                	mv	a1,s1
    80001f4e:	6928                	ld	a0,80(a0)
    80001f50:	fffff097          	auipc	ra,0xfffff
    80001f54:	d1c080e7          	jalr	-740(ra) # 80000c6c <copyinstr>
  if(err < 0)
    80001f58:	00054763          	bltz	a0,80001f66 <fetchstr+0x3a>
  return strlen(buf);
    80001f5c:	8526                	mv	a0,s1
    80001f5e:	ffffe097          	auipc	ra,0xffffe
    80001f62:	3e8080e7          	jalr	1000(ra) # 80000346 <strlen>
}
    80001f66:	70a2                	ld	ra,40(sp)
    80001f68:	7402                	ld	s0,32(sp)
    80001f6a:	64e2                	ld	s1,24(sp)
    80001f6c:	6942                	ld	s2,16(sp)
    80001f6e:	69a2                	ld	s3,8(sp)
    80001f70:	6145                	addi	sp,sp,48
    80001f72:	8082                	ret

0000000080001f74 <argint>:

// Fetch the nth 32-bit system call argument.
int
argint(int n, int *ip)
{
    80001f74:	1101                	addi	sp,sp,-32
    80001f76:	ec06                	sd	ra,24(sp)
    80001f78:	e822                	sd	s0,16(sp)
    80001f7a:	e426                	sd	s1,8(sp)
    80001f7c:	1000                	addi	s0,sp,32
    80001f7e:	84ae                	mv	s1,a1
  *ip = argraw(n);
    80001f80:	00000097          	auipc	ra,0x0
    80001f84:	ef2080e7          	jalr	-270(ra) # 80001e72 <argraw>
    80001f88:	c088                	sw	a0,0(s1)
  return 0;
}
    80001f8a:	4501                	li	a0,0
    80001f8c:	60e2                	ld	ra,24(sp)
    80001f8e:	6442                	ld	s0,16(sp)
    80001f90:	64a2                	ld	s1,8(sp)
    80001f92:	6105                	addi	sp,sp,32
    80001f94:	8082                	ret

0000000080001f96 <argaddr>:
// Retrieve an argument as a pointer.
// Doesn't check for legality, since
// copyin/copyout will do that.
int
argaddr(int n, uint64 *ip)
{
    80001f96:	1101                	addi	sp,sp,-32
    80001f98:	ec06                	sd	ra,24(sp)
    80001f9a:	e822                	sd	s0,16(sp)
    80001f9c:	e426                	sd	s1,8(sp)
    80001f9e:	1000                	addi	s0,sp,32
    80001fa0:	84ae                	mv	s1,a1
  *ip = argraw(n);
    80001fa2:	00000097          	auipc	ra,0x0
    80001fa6:	ed0080e7          	jalr	-304(ra) # 80001e72 <argraw>
    80001faa:	e088                	sd	a0,0(s1)
  return 0;
}
    80001fac:	4501                	li	a0,0
    80001fae:	60e2                	ld	ra,24(sp)
    80001fb0:	6442                	ld	s0,16(sp)
    80001fb2:	64a2                	ld	s1,8(sp)
    80001fb4:	6105                	addi	sp,sp,32
    80001fb6:	8082                	ret

0000000080001fb8 <argstr>:
// Fetch the nth word-sized system call argument as a null-terminated string.
// Copies into buf, at most max.
// Returns string length if OK (including nul), -1 if error.
int
argstr(int n, char *buf, int max)
{
    80001fb8:	1101                	addi	sp,sp,-32
    80001fba:	ec06                	sd	ra,24(sp)
    80001fbc:	e822                	sd	s0,16(sp)
    80001fbe:	e426                	sd	s1,8(sp)
    80001fc0:	e04a                	sd	s2,0(sp)
    80001fc2:	1000                	addi	s0,sp,32
    80001fc4:	84ae                	mv	s1,a1
    80001fc6:	8932                	mv	s2,a2
  *ip = argraw(n);
    80001fc8:	00000097          	auipc	ra,0x0
    80001fcc:	eaa080e7          	jalr	-342(ra) # 80001e72 <argraw>
  uint64 addr;
  if(argaddr(n, &addr) < 0)
    return -1;
  return fetchstr(addr, buf, max);
    80001fd0:	864a                	mv	a2,s2
    80001fd2:	85a6                	mv	a1,s1
    80001fd4:	00000097          	auipc	ra,0x0
    80001fd8:	f58080e7          	jalr	-168(ra) # 80001f2c <fetchstr>
}
    80001fdc:	60e2                	ld	ra,24(sp)
    80001fde:	6442                	ld	s0,16(sp)
    80001fe0:	64a2                	ld	s1,8(sp)
    80001fe2:	6902                	ld	s2,0(sp)
    80001fe4:	6105                	addi	sp,sp,32
    80001fe6:	8082                	ret

0000000080001fe8 <syscall>:
    80001fe8:	7179                	addi	sp,sp,-48
    80001fea:	f406                	sd	ra,40(sp)
    80001fec:	f022                	sd	s0,32(sp)
    80001fee:	ec26                	sd	s1,24(sp)
    80001ff0:	e84a                	sd	s2,16(sp)
    80001ff2:	e44e                	sd	s3,8(sp)
    80001ff4:	1800                	addi	s0,sp,48
    80001ff6:	fffff097          	auipc	ra,0xfffff
    80001ffa:	e9c080e7          	jalr	-356(ra) # 80000e92 <myproc>
    80001ffe:	84aa                	mv	s1,a0
    80002000:	06053903          	ld	s2,96(a0)
    80002004:	0a893783          	ld	a5,168(s2)
    80002008:	0007899b          	sext.w	s3,a5
    8000200c:	37fd                	addiw	a5,a5,-1
    8000200e:	4759                	li	a4,22
    80002010:	04f76963          	bltu	a4,a5,80002062 <syscall+0x7a>
    80002014:	00399713          	slli	a4,s3,0x3
    80002018:	00006797          	auipc	a5,0x6
    8000201c:	47878793          	addi	a5,a5,1144 # 80008490 <syscalls>
    80002020:	97ba                	add	a5,a5,a4
    80002022:	639c                	ld	a5,0(a5)
    80002024:	cf9d                	beqz	a5,80002062 <syscall+0x7a>
    80002026:	9782                	jalr	a5
    80002028:	06a93823          	sd	a0,112(s2)
    8000202c:	4785                	li	a5,1
    8000202e:	0137973b          	sllw	a4,a5,s3
    80002032:	4cbc                	lw	a5,88(s1)
    80002034:	8ff9                	and	a5,a5,a4
    80002036:	2781                	sext.w	a5,a5
    80002038:	c7a1                	beqz	a5,80002080 <syscall+0x98>
    8000203a:	70b8                	ld	a4,96(s1)
    8000203c:	098e                	slli	s3,s3,0x3
    8000203e:	00006797          	auipc	a5,0x6
    80002042:	45278793          	addi	a5,a5,1106 # 80008490 <syscalls>
    80002046:	99be                	add	s3,s3,a5
    80002048:	7b34                	ld	a3,112(a4)
    8000204a:	0c09b603          	ld	a2,192(s3)
    8000204e:	588c                	lw	a1,48(s1)
    80002050:	00006517          	auipc	a0,0x6
    80002054:	34050513          	addi	a0,a0,832 # 80008390 <states.1715+0x150>
    80002058:	00004097          	auipc	ra,0x4
    8000205c:	c5a080e7          	jalr	-934(ra) # 80005cb2 <printf>
    80002060:	a005                	j	80002080 <syscall+0x98>
    80002062:	86ce                	mv	a3,s3
    80002064:	16048613          	addi	a2,s1,352
    80002068:	588c                	lw	a1,48(s1)
    8000206a:	00006517          	auipc	a0,0x6
    8000206e:	33e50513          	addi	a0,a0,830 # 800083a8 <states.1715+0x168>
    80002072:	00004097          	auipc	ra,0x4
    80002076:	c40080e7          	jalr	-960(ra) # 80005cb2 <printf>
    8000207a:	70bc                	ld	a5,96(s1)
    8000207c:	577d                	li	a4,-1
    8000207e:	fbb8                	sd	a4,112(a5)
    80002080:	70a2                	ld	ra,40(sp)
    80002082:	7402                	ld	s0,32(sp)
    80002084:	64e2                	ld	s1,24(sp)
    80002086:	6942                	ld	s2,16(sp)
    80002088:	69a2                	ld	s3,8(sp)
    8000208a:	6145                	addi	sp,sp,48
    8000208c:	8082                	ret

000000008000208e <sys_exit>:
#include "proc.h"

uint64
sys_exit(void)
{
  int n;
    8000208e:	1101                	addi	sp,sp,-32
    80002090:	ec06                	sd	ra,24(sp)
    80002092:	e822                	sd	s0,16(sp)
    80002094:	1000                	addi	s0,sp,32
  if(argint(0, &n) < 0)
    return -1;
    80002096:	fec40593          	addi	a1,s0,-20
    8000209a:	4501                	li	a0,0
    8000209c:	00000097          	auipc	ra,0x0
    800020a0:	ed8080e7          	jalr	-296(ra) # 80001f74 <argint>
  exit(n);
    800020a4:	57fd                	li	a5,-1
    return -1;
    800020a6:	00054963          	bltz	a0,800020b8 <sys_exit+0x2a>
  return 0;  // not reached
    800020aa:	fec42503          	lw	a0,-20(s0)
    800020ae:	fffff097          	auipc	ra,0xfffff
    800020b2:	704080e7          	jalr	1796(ra) # 800017b2 <exit>
}
    800020b6:	4781                	li	a5,0

    800020b8:	853e                	mv	a0,a5
    800020ba:	60e2                	ld	ra,24(sp)
    800020bc:	6442                	ld	s0,16(sp)
    800020be:	6105                	addi	sp,sp,32
    800020c0:	8082                	ret

00000000800020c2 <sys_getpid>:
uint64
sys_getpid(void)
{
  return myproc()->pid;
    800020c2:	1141                	addi	sp,sp,-16
    800020c4:	e406                	sd	ra,8(sp)
    800020c6:	e022                	sd	s0,0(sp)
    800020c8:	0800                	addi	s0,sp,16
}
    800020ca:	fffff097          	auipc	ra,0xfffff
    800020ce:	dc8080e7          	jalr	-568(ra) # 80000e92 <myproc>

    800020d2:	5908                	lw	a0,48(a0)
    800020d4:	60a2                	ld	ra,8(sp)
    800020d6:	6402                	ld	s0,0(sp)
    800020d8:	0141                	addi	sp,sp,16
    800020da:	8082                	ret

00000000800020dc <sys_fork>:
uint64
sys_fork(void)
{
  return fork();
    800020dc:	1141                	addi	sp,sp,-16
    800020de:	e406                	sd	ra,8(sp)
    800020e0:	e022                	sd	s0,0(sp)
    800020e2:	0800                	addi	s0,sp,16
}
    800020e4:	fffff097          	auipc	ra,0xfffff
    800020e8:	17c080e7          	jalr	380(ra) # 80001260 <fork>

    800020ec:	60a2                	ld	ra,8(sp)
    800020ee:	6402                	ld	s0,0(sp)
    800020f0:	0141                	addi	sp,sp,16
    800020f2:	8082                	ret

00000000800020f4 <sys_wait>:
uint64
sys_wait(void)
{
  uint64 p;
    800020f4:	1101                	addi	sp,sp,-32
    800020f6:	ec06                	sd	ra,24(sp)
    800020f8:	e822                	sd	s0,16(sp)
    800020fa:	1000                	addi	s0,sp,32
  if(argaddr(0, &p) < 0)
    return -1;
    800020fc:	fe840593          	addi	a1,s0,-24
    80002100:	4501                	li	a0,0
    80002102:	00000097          	auipc	ra,0x0
    80002106:	e94080e7          	jalr	-364(ra) # 80001f96 <argaddr>
    8000210a:	87aa                	mv	a5,a0
  return wait(p);
    8000210c:	557d                	li	a0,-1
    return -1;
    8000210e:	0007c863          	bltz	a5,8000211e <sys_wait+0x2a>
}
    80002112:	fe843503          	ld	a0,-24(s0)
    80002116:	fffff097          	auipc	ra,0xfffff
    8000211a:	4a4080e7          	jalr	1188(ra) # 800015ba <wait>

    8000211e:	60e2                	ld	ra,24(sp)
    80002120:	6442                	ld	s0,16(sp)
    80002122:	6105                	addi	sp,sp,32
    80002124:	8082                	ret

0000000080002126 <sys_sbrk>:
uint64
sys_sbrk(void)
{
  int addr;
    80002126:	7179                	addi	sp,sp,-48
    80002128:	f406                	sd	ra,40(sp)
    8000212a:	f022                	sd	s0,32(sp)
    8000212c:	ec26                	sd	s1,24(sp)
    8000212e:	1800                	addi	s0,sp,48
  int n;

  if(argint(0, &n) < 0)
    return -1;
    80002130:	fdc40593          	addi	a1,s0,-36
    80002134:	4501                	li	a0,0
    80002136:	00000097          	auipc	ra,0x0
    8000213a:	e3e080e7          	jalr	-450(ra) # 80001f74 <argint>
    8000213e:	87aa                	mv	a5,a0
  addr = myproc()->sz;
    80002140:	557d                	li	a0,-1
    return -1;
    80002142:	0207c063          	bltz	a5,80002162 <sys_sbrk+0x3c>
  if(growproc(n) < 0)
    80002146:	fffff097          	auipc	ra,0xfffff
    8000214a:	d4c080e7          	jalr	-692(ra) # 80000e92 <myproc>
    8000214e:	4524                	lw	s1,72(a0)
    return -1;
    80002150:	fdc42503          	lw	a0,-36(s0)
    80002154:	fffff097          	auipc	ra,0xfffff
    80002158:	098080e7          	jalr	152(ra) # 800011ec <growproc>
    8000215c:	00054863          	bltz	a0,8000216c <sys_sbrk+0x46>
  return addr;
}
    80002160:	8526                	mv	a0,s1

    80002162:	70a2                	ld	ra,40(sp)
    80002164:	7402                	ld	s0,32(sp)
    80002166:	64e2                	ld	s1,24(sp)
    80002168:	6145                	addi	sp,sp,48
    8000216a:	8082                	ret
  return addr;
    8000216c:	557d                	li	a0,-1
    8000216e:	bfd5                	j	80002162 <sys_sbrk+0x3c>

0000000080002170 <sys_sleep>:
uint64
sys_sleep(void)
{
  int n;
    80002170:	7139                	addi	sp,sp,-64
    80002172:	fc06                	sd	ra,56(sp)
    80002174:	f822                	sd	s0,48(sp)
    80002176:	f426                	sd	s1,40(sp)
    80002178:	f04a                	sd	s2,32(sp)
    8000217a:	ec4e                	sd	s3,24(sp)
    8000217c:	0080                	addi	s0,sp,64
  uint ticks0;

  if(argint(0, &n) < 0)
    return -1;
    8000217e:	fcc40593          	addi	a1,s0,-52
    80002182:	4501                	li	a0,0
    80002184:	00000097          	auipc	ra,0x0
    80002188:	df0080e7          	jalr	-528(ra) # 80001f74 <argint>
  acquire(&tickslock);
    8000218c:	57fd                	li	a5,-1
    return -1;
    8000218e:	06054563          	bltz	a0,800021f8 <sys_sleep+0x88>
  ticks0 = ticks;
    80002192:	0000d517          	auipc	a0,0xd
    80002196:	eee50513          	addi	a0,a0,-274 # 8000f080 <tickslock>
    8000219a:	00004097          	auipc	ra,0x4
    8000219e:	018080e7          	jalr	24(ra) # 800061b2 <acquire>
  while(ticks - ticks0 < n){
    800021a2:	00007917          	auipc	s2,0x7
    800021a6:	e7692903          	lw	s2,-394(s2) # 80009018 <ticks>
    if(myproc()->killed){
    800021aa:	fcc42783          	lw	a5,-52(s0)
    800021ae:	cf85                	beqz	a5,800021e6 <sys_sleep+0x76>
      release(&tickslock);
      return -1;
    }
    sleep(&ticks, &tickslock);
  }
    800021b0:	0000d997          	auipc	s3,0xd
    800021b4:	ed098993          	addi	s3,s3,-304 # 8000f080 <tickslock>
    800021b8:	00007497          	auipc	s1,0x7
    800021bc:	e6048493          	addi	s1,s1,-416 # 80009018 <ticks>
      release(&tickslock);
    800021c0:	fffff097          	auipc	ra,0xfffff
    800021c4:	cd2080e7          	jalr	-814(ra) # 80000e92 <myproc>
    800021c8:	551c                	lw	a5,40(a0)
    800021ca:	ef9d                	bnez	a5,80002208 <sys_sleep+0x98>
  }
    800021cc:	85ce                	mv	a1,s3
    800021ce:	8526                	mv	a0,s1
    800021d0:	fffff097          	auipc	ra,0xfffff
    800021d4:	386080e7          	jalr	902(ra) # 80001556 <sleep>
    if(myproc()->killed){
    800021d8:	409c                	lw	a5,0(s1)
    800021da:	412787bb          	subw	a5,a5,s2
    800021de:	fcc42703          	lw	a4,-52(s0)
    800021e2:	fce7efe3          	bltu	a5,a4,800021c0 <sys_sleep+0x50>
  release(&tickslock);
  backtrace();
    800021e6:	0000d517          	auipc	a0,0xd
    800021ea:	e9a50513          	addi	a0,a0,-358 # 8000f080 <tickslock>
    800021ee:	00004097          	auipc	ra,0x4
    800021f2:	078080e7          	jalr	120(ra) # 80006266 <release>
  return 0;
    800021f6:	4781                	li	a5,0
}
    800021f8:	853e                	mv	a0,a5
    800021fa:	70e2                	ld	ra,56(sp)
    800021fc:	7442                	ld	s0,48(sp)
    800021fe:	74a2                	ld	s1,40(sp)
    80002200:	7902                	ld	s2,32(sp)
    80002202:	69e2                	ld	s3,24(sp)
    80002204:	6121                	addi	sp,sp,64
    80002206:	8082                	ret
      return -1;
    80002208:	0000d517          	auipc	a0,0xd
    8000220c:	e7850513          	addi	a0,a0,-392 # 8000f080 <tickslock>
    80002210:	00004097          	auipc	ra,0x4
    80002214:	056080e7          	jalr	86(ra) # 80006266 <release>
    }
    80002218:	57fd                	li	a5,-1
    8000221a:	bff9                	j	800021f8 <sys_sleep+0x88>

000000008000221c <sys_kill>:

uint64
sys_kill(void)
{
    8000221c:	1101                	addi	sp,sp,-32
    8000221e:	ec06                	sd	ra,24(sp)
    80002220:	e822                	sd	s0,16(sp)
    80002222:	1000                	addi	s0,sp,32
  int pid;

  if(argint(0, &pid) < 0)
    80002224:	fec40593          	addi	a1,s0,-20
    80002228:	4501                	li	a0,0
    8000222a:	00000097          	auipc	ra,0x0
    8000222e:	d4a080e7          	jalr	-694(ra) # 80001f74 <argint>
    80002232:	87aa                	mv	a5,a0
    return -1;
    80002234:	557d                	li	a0,-1
  if(argint(0, &pid) < 0)
    80002236:	0007c863          	bltz	a5,80002246 <sys_kill+0x2a>
  return kill(pid);
    8000223a:	fec42503          	lw	a0,-20(s0)
    8000223e:	fffff097          	auipc	ra,0xfffff
    80002242:	64a080e7          	jalr	1610(ra) # 80001888 <kill>
}
    80002246:	60e2                	ld	ra,24(sp)
    80002248:	6442                	ld	s0,16(sp)
    8000224a:	6105                	addi	sp,sp,32
    8000224c:	8082                	ret

000000008000224e <sys_uptime>:

// return how many clock tick interrupts have occurred
// since start.
uint64
sys_uptime(void)
{
    8000224e:	1101                	addi	sp,sp,-32
    80002250:	ec06                	sd	ra,24(sp)
    80002252:	e822                	sd	s0,16(sp)
    80002254:	e426                	sd	s1,8(sp)
    80002256:	1000                	addi	s0,sp,32
  uint xticks;

  acquire(&tickslock);
    80002258:	0000d517          	auipc	a0,0xd
    8000225c:	e2850513          	addi	a0,a0,-472 # 8000f080 <tickslock>
    80002260:	00004097          	auipc	ra,0x4
    80002264:	f52080e7          	jalr	-174(ra) # 800061b2 <acquire>
  xticks = ticks;
    80002268:	00007497          	auipc	s1,0x7
    8000226c:	db04a483          	lw	s1,-592(s1) # 80009018 <ticks>
  release(&tickslock);
    80002270:	0000d517          	auipc	a0,0xd
    80002274:	e1050513          	addi	a0,a0,-496 # 8000f080 <tickslock>
    80002278:	00004097          	auipc	ra,0x4
    8000227c:	fee080e7          	jalr	-18(ra) # 80006266 <release>
  return xticks;
}
    80002280:	02049513          	slli	a0,s1,0x20
    80002284:	9101                	srli	a0,a0,0x20
    80002286:	60e2                	ld	ra,24(sp)
    80002288:	6442                	ld	s0,16(sp)
    8000228a:	64a2                	ld	s1,8(sp)
    8000228c:	6105                	addi	sp,sp,32
    8000228e:	8082                	ret

0000000080002290 <sys_trace>:

uint64
sys_sigalarm(void){
    printf("sigalarm\n");
    80002290:	7179                	addi	sp,sp,-48
    80002292:	f406                	sd	ra,40(sp)
    80002294:	f022                	sd	s0,32(sp)
    80002296:	ec26                	sd	s1,24(sp)
    80002298:	1800                	addi	s0,sp,48
    int ticks;
    uint64 handler;
    8000229a:	fdc40593          	addi	a1,s0,-36
    8000229e:	4501                	li	a0,0
    800022a0:	00000097          	auipc	ra,0x0
    800022a4:	cd4080e7          	jalr	-812(ra) # 80001f74 <argint>
    if(argint(0,&ticks) < 0 || argaddr(1,&handler) < 0)
    800022a8:	57fd                	li	a5,-1
    uint64 handler;
    800022aa:	00054a63          	bltz	a0,800022be <sys_trace+0x2e>
        return -1;
    800022ae:	fdc42483          	lw	s1,-36(s0)
    800022b2:	fffff097          	auipc	ra,0xfffff
    800022b6:	be0080e7          	jalr	-1056(ra) # 80000e92 <myproc>
    800022ba:	cd24                	sw	s1,88(a0)
    myproc()->ticks = ticks;
    800022bc:	4781                	li	a5,0
    myproc()->handler = handler;
    800022be:	853e                	mv	a0,a5
    800022c0:	70a2                	ld	ra,40(sp)
    800022c2:	7402                	ld	s0,32(sp)
    800022c4:	64e2                	ld	s1,24(sp)
    800022c6:	6145                	addi	sp,sp,48
    800022c8:	8082                	ret

00000000800022ca <sys_sysinfo>:
    return 0;
}
uint64
sys_sigreturn(void){
    800022ca:	7139                	addi	sp,sp,-64
    800022cc:	fc06                	sd	ra,56(sp)
    800022ce:	f822                	sd	s0,48(sp)
    800022d0:	f426                	sd	s1,40(sp)
    800022d2:	0080                	addi	s0,sp,64
    printf("sigreturn\n");
    struct proc* p = myproc();
    800022d4:	fd840593          	addi	a1,s0,-40
    800022d8:	4501                	li	a0,0
    800022da:	00000097          	auipc	ra,0x0
    800022de:	cbc080e7          	jalr	-836(ra) # 80001f96 <argaddr>
    800022e2:	87aa                	mv	a5,a0
    p->handlerlock = 1;
    800022e4:	557d                	li	a0,-1
    struct proc* p = myproc();
    800022e6:	0207ce63          	bltz	a5,80002322 <sys_sysinfo+0x58>
    p->trapframe->epc = p->trapframe->sepc;
    p->trapframe->ra = p->trapframe->sra;
    800022ea:	fffff097          	auipc	ra,0xfffff
    800022ee:	ba8080e7          	jalr	-1112(ra) # 80000e92 <myproc>
    800022f2:	84aa                	mv	s1,a0
    p->trapframe->sp = p->trapframe->ssp;
    800022f4:	ffffe097          	auipc	ra,0xffffe
    800022f8:	e84080e7          	jalr	-380(ra) # 80000178 <getfreemem>
    800022fc:	fca43423          	sd	a0,-56(s0)
    p->trapframe->gp = p->trapframe->sgp;
    80002300:	fffff097          	auipc	ra,0xfffff
    80002304:	754080e7          	jalr	1876(ra) # 80001a54 <getnproc>
    80002308:	fca43823          	sd	a0,-48(s0)
    p->trapframe->tp = p->trapframe->stp;
    8000230c:	46c1                	li	a3,16
    8000230e:	fc840613          	addi	a2,s0,-56
    80002312:	fd843583          	ld	a1,-40(s0)
    80002316:	68a8                	ld	a0,80(s1)
    80002318:	fffff097          	auipc	ra,0xfffff
    8000231c:	83c080e7          	jalr	-1988(ra) # 80000b54 <copyout>
    80002320:	957d                	srai	a0,a0,0x3f
    p->trapframe->t0 = p->trapframe->st0;
    p->trapframe->t1 = p->trapframe->st1;
    p->trapframe->t2 = p->trapframe->st2;
    80002322:	70e2                	ld	ra,56(sp)
    80002324:	7442                	ld	s0,48(sp)
    80002326:	74a2                	ld	s1,40(sp)
    80002328:	6121                	addi	sp,sp,64
    8000232a:	8082                	ret

000000008000232c <binit>:
  struct buf head;
} bcache;

void
binit(void)
{
    8000232c:	7179                	addi	sp,sp,-48
    8000232e:	f406                	sd	ra,40(sp)
    80002330:	f022                	sd	s0,32(sp)
    80002332:	ec26                	sd	s1,24(sp)
    80002334:	e84a                	sd	s2,16(sp)
    80002336:	e44e                	sd	s3,8(sp)
    80002338:	e052                	sd	s4,0(sp)
    8000233a:	1800                	addi	s0,sp,48
  struct buf *b;

  initlock(&bcache.lock, "bcache");
    8000233c:	00006597          	auipc	a1,0x6
    80002340:	2d458593          	addi	a1,a1,724 # 80008610 <syscall_name+0xc0>
    80002344:	0000d517          	auipc	a0,0xd
    80002348:	d5450513          	addi	a0,a0,-684 # 8000f098 <bcache>
    8000234c:	00004097          	auipc	ra,0x4
    80002350:	dd6080e7          	jalr	-554(ra) # 80006122 <initlock>

  // Create linked list of buffers
  bcache.head.prev = &bcache.head;
    80002354:	00015797          	auipc	a5,0x15
    80002358:	d4478793          	addi	a5,a5,-700 # 80017098 <bcache+0x8000>
    8000235c:	00015717          	auipc	a4,0x15
    80002360:	fa470713          	addi	a4,a4,-92 # 80017300 <bcache+0x8268>
    80002364:	2ae7b823          	sd	a4,688(a5)
  bcache.head.next = &bcache.head;
    80002368:	2ae7bc23          	sd	a4,696(a5)
  for(b = bcache.buf; b < bcache.buf+NBUF; b++){
    8000236c:	0000d497          	auipc	s1,0xd
    80002370:	d4448493          	addi	s1,s1,-700 # 8000f0b0 <bcache+0x18>
    b->next = bcache.head.next;
    80002374:	893e                	mv	s2,a5
    b->prev = &bcache.head;
    80002376:	89ba                	mv	s3,a4
    initsleeplock(&b->lock, "buffer");
    80002378:	00006a17          	auipc	s4,0x6
    8000237c:	2a0a0a13          	addi	s4,s4,672 # 80008618 <syscall_name+0xc8>
    b->next = bcache.head.next;
    80002380:	2b893783          	ld	a5,696(s2)
    80002384:	e8bc                	sd	a5,80(s1)
    b->prev = &bcache.head;
    80002386:	0534b423          	sd	s3,72(s1)
    initsleeplock(&b->lock, "buffer");
    8000238a:	85d2                	mv	a1,s4
    8000238c:	01048513          	addi	a0,s1,16
    80002390:	00001097          	auipc	ra,0x1
    80002394:	4bc080e7          	jalr	1212(ra) # 8000384c <initsleeplock>
    bcache.head.next->prev = b;
    80002398:	2b893783          	ld	a5,696(s2)
    8000239c:	e7a4                	sd	s1,72(a5)
    bcache.head.next = b;
    8000239e:	2a993c23          	sd	s1,696(s2)
  for(b = bcache.buf; b < bcache.buf+NBUF; b++){
    800023a2:	45848493          	addi	s1,s1,1112
    800023a6:	fd349de3          	bne	s1,s3,80002380 <binit+0x54>
  }
}
    800023aa:	70a2                	ld	ra,40(sp)
    800023ac:	7402                	ld	s0,32(sp)
    800023ae:	64e2                	ld	s1,24(sp)
    800023b0:	6942                	ld	s2,16(sp)
    800023b2:	69a2                	ld	s3,8(sp)
    800023b4:	6a02                	ld	s4,0(sp)
    800023b6:	6145                	addi	sp,sp,48
    800023b8:	8082                	ret

00000000800023ba <bread>:
}

// Return a locked buf with the contents of the indicated block.
struct buf*
bread(uint dev, uint blockno)
{
    800023ba:	7179                	addi	sp,sp,-48
    800023bc:	f406                	sd	ra,40(sp)
    800023be:	f022                	sd	s0,32(sp)
    800023c0:	ec26                	sd	s1,24(sp)
    800023c2:	e84a                	sd	s2,16(sp)
    800023c4:	e44e                	sd	s3,8(sp)
    800023c6:	1800                	addi	s0,sp,48
    800023c8:	89aa                	mv	s3,a0
    800023ca:	892e                	mv	s2,a1
  acquire(&bcache.lock);
    800023cc:	0000d517          	auipc	a0,0xd
    800023d0:	ccc50513          	addi	a0,a0,-820 # 8000f098 <bcache>
    800023d4:	00004097          	auipc	ra,0x4
    800023d8:	dde080e7          	jalr	-546(ra) # 800061b2 <acquire>
  for(b = bcache.head.next; b != &bcache.head; b = b->next){
    800023dc:	00015497          	auipc	s1,0x15
    800023e0:	f744b483          	ld	s1,-140(s1) # 80017350 <bcache+0x82b8>
    800023e4:	00015797          	auipc	a5,0x15
    800023e8:	f1c78793          	addi	a5,a5,-228 # 80017300 <bcache+0x8268>
    800023ec:	02f48f63          	beq	s1,a5,8000242a <bread+0x70>
    800023f0:	873e                	mv	a4,a5
    800023f2:	a021                	j	800023fa <bread+0x40>
    800023f4:	68a4                	ld	s1,80(s1)
    800023f6:	02e48a63          	beq	s1,a4,8000242a <bread+0x70>
    if(b->dev == dev && b->blockno == blockno){
    800023fa:	449c                	lw	a5,8(s1)
    800023fc:	ff379ce3          	bne	a5,s3,800023f4 <bread+0x3a>
    80002400:	44dc                	lw	a5,12(s1)
    80002402:	ff2799e3          	bne	a5,s2,800023f4 <bread+0x3a>
      b->refcnt++;
    80002406:	40bc                	lw	a5,64(s1)
    80002408:	2785                	addiw	a5,a5,1
    8000240a:	c0bc                	sw	a5,64(s1)
      release(&bcache.lock);
    8000240c:	0000d517          	auipc	a0,0xd
    80002410:	c8c50513          	addi	a0,a0,-884 # 8000f098 <bcache>
    80002414:	00004097          	auipc	ra,0x4
    80002418:	e52080e7          	jalr	-430(ra) # 80006266 <release>
      acquiresleep(&b->lock);
    8000241c:	01048513          	addi	a0,s1,16
    80002420:	00001097          	auipc	ra,0x1
    80002424:	466080e7          	jalr	1126(ra) # 80003886 <acquiresleep>
      return b;
    80002428:	a8b9                	j	80002486 <bread+0xcc>
  for(b = bcache.head.prev; b != &bcache.head; b = b->prev){
    8000242a:	00015497          	auipc	s1,0x15
    8000242e:	f1e4b483          	ld	s1,-226(s1) # 80017348 <bcache+0x82b0>
    80002432:	00015797          	auipc	a5,0x15
    80002436:	ece78793          	addi	a5,a5,-306 # 80017300 <bcache+0x8268>
    8000243a:	00f48863          	beq	s1,a5,8000244a <bread+0x90>
    8000243e:	873e                	mv	a4,a5
    if(b->refcnt == 0) {
    80002440:	40bc                	lw	a5,64(s1)
    80002442:	cf81                	beqz	a5,8000245a <bread+0xa0>
  for(b = bcache.head.prev; b != &bcache.head; b = b->prev){
    80002444:	64a4                	ld	s1,72(s1)
    80002446:	fee49de3          	bne	s1,a4,80002440 <bread+0x86>
  panic("bget: no buffers");
    8000244a:	00006517          	auipc	a0,0x6
    8000244e:	1d650513          	addi	a0,a0,470 # 80008620 <syscall_name+0xd0>
    80002452:	00004097          	auipc	ra,0x4
    80002456:	816080e7          	jalr	-2026(ra) # 80005c68 <panic>
      b->dev = dev;
    8000245a:	0134a423          	sw	s3,8(s1)
      b->blockno = blockno;
    8000245e:	0124a623          	sw	s2,12(s1)
      b->valid = 0;
    80002462:	0004a023          	sw	zero,0(s1)
      b->refcnt = 1;
    80002466:	4785                	li	a5,1
    80002468:	c0bc                	sw	a5,64(s1)
      release(&bcache.lock);
    8000246a:	0000d517          	auipc	a0,0xd
    8000246e:	c2e50513          	addi	a0,a0,-978 # 8000f098 <bcache>
    80002472:	00004097          	auipc	ra,0x4
    80002476:	df4080e7          	jalr	-524(ra) # 80006266 <release>
      acquiresleep(&b->lock);
    8000247a:	01048513          	addi	a0,s1,16
    8000247e:	00001097          	auipc	ra,0x1
    80002482:	408080e7          	jalr	1032(ra) # 80003886 <acquiresleep>
  struct buf *b;

  b = bget(dev, blockno);
  if(!b->valid) {
    80002486:	409c                	lw	a5,0(s1)
    80002488:	cb89                	beqz	a5,8000249a <bread+0xe0>
    virtio_disk_rw(b, 0);
    b->valid = 1;
  }
  return b;
}
    8000248a:	8526                	mv	a0,s1
    8000248c:	70a2                	ld	ra,40(sp)
    8000248e:	7402                	ld	s0,32(sp)
    80002490:	64e2                	ld	s1,24(sp)
    80002492:	6942                	ld	s2,16(sp)
    80002494:	69a2                	ld	s3,8(sp)
    80002496:	6145                	addi	sp,sp,48
    80002498:	8082                	ret
    virtio_disk_rw(b, 0);
    8000249a:	4581                	li	a1,0
    8000249c:	8526                	mv	a0,s1
    8000249e:	00003097          	auipc	ra,0x3
    800024a2:	f08080e7          	jalr	-248(ra) # 800053a6 <virtio_disk_rw>
    b->valid = 1;
    800024a6:	4785                	li	a5,1
    800024a8:	c09c                	sw	a5,0(s1)
  return b;
    800024aa:	b7c5                	j	8000248a <bread+0xd0>

00000000800024ac <bwrite>:

// Write b's contents to disk.  Must be locked.
void
bwrite(struct buf *b)
{
    800024ac:	1101                	addi	sp,sp,-32
    800024ae:	ec06                	sd	ra,24(sp)
    800024b0:	e822                	sd	s0,16(sp)
    800024b2:	e426                	sd	s1,8(sp)
    800024b4:	1000                	addi	s0,sp,32
    800024b6:	84aa                	mv	s1,a0
  if(!holdingsleep(&b->lock))
    800024b8:	0541                	addi	a0,a0,16
    800024ba:	00001097          	auipc	ra,0x1
    800024be:	466080e7          	jalr	1126(ra) # 80003920 <holdingsleep>
    800024c2:	cd01                	beqz	a0,800024da <bwrite+0x2e>
    panic("bwrite");
  virtio_disk_rw(b, 1);
    800024c4:	4585                	li	a1,1
    800024c6:	8526                	mv	a0,s1
    800024c8:	00003097          	auipc	ra,0x3
    800024cc:	ede080e7          	jalr	-290(ra) # 800053a6 <virtio_disk_rw>
}
    800024d0:	60e2                	ld	ra,24(sp)
    800024d2:	6442                	ld	s0,16(sp)
    800024d4:	64a2                	ld	s1,8(sp)
    800024d6:	6105                	addi	sp,sp,32
    800024d8:	8082                	ret
    panic("bwrite");
    800024da:	00006517          	auipc	a0,0x6
    800024de:	15e50513          	addi	a0,a0,350 # 80008638 <syscall_name+0xe8>
    800024e2:	00003097          	auipc	ra,0x3
    800024e6:	786080e7          	jalr	1926(ra) # 80005c68 <panic>

00000000800024ea <brelse>:

// Release a locked buffer.
// Move to the head of the most-recently-used list.
void
brelse(struct buf *b)
{
    800024ea:	1101                	addi	sp,sp,-32
    800024ec:	ec06                	sd	ra,24(sp)
    800024ee:	e822                	sd	s0,16(sp)
    800024f0:	e426                	sd	s1,8(sp)
    800024f2:	e04a                	sd	s2,0(sp)
    800024f4:	1000                	addi	s0,sp,32
    800024f6:	84aa                	mv	s1,a0
  if(!holdingsleep(&b->lock))
    800024f8:	01050913          	addi	s2,a0,16
    800024fc:	854a                	mv	a0,s2
    800024fe:	00001097          	auipc	ra,0x1
    80002502:	422080e7          	jalr	1058(ra) # 80003920 <holdingsleep>
    80002506:	c92d                	beqz	a0,80002578 <brelse+0x8e>
    panic("brelse");

  releasesleep(&b->lock);
    80002508:	854a                	mv	a0,s2
    8000250a:	00001097          	auipc	ra,0x1
    8000250e:	3d2080e7          	jalr	978(ra) # 800038dc <releasesleep>

  acquire(&bcache.lock);
    80002512:	0000d517          	auipc	a0,0xd
    80002516:	b8650513          	addi	a0,a0,-1146 # 8000f098 <bcache>
    8000251a:	00004097          	auipc	ra,0x4
    8000251e:	c98080e7          	jalr	-872(ra) # 800061b2 <acquire>
  b->refcnt--;
    80002522:	40bc                	lw	a5,64(s1)
    80002524:	37fd                	addiw	a5,a5,-1
    80002526:	0007871b          	sext.w	a4,a5
    8000252a:	c0bc                	sw	a5,64(s1)
  if (b->refcnt == 0) {
    8000252c:	eb05                	bnez	a4,8000255c <brelse+0x72>
    // no one is waiting for it.
    b->next->prev = b->prev;
    8000252e:	68bc                	ld	a5,80(s1)
    80002530:	64b8                	ld	a4,72(s1)
    80002532:	e7b8                	sd	a4,72(a5)
    b->prev->next = b->next;
    80002534:	64bc                	ld	a5,72(s1)
    80002536:	68b8                	ld	a4,80(s1)
    80002538:	ebb8                	sd	a4,80(a5)
    b->next = bcache.head.next;
    8000253a:	00015797          	auipc	a5,0x15
    8000253e:	b5e78793          	addi	a5,a5,-1186 # 80017098 <bcache+0x8000>
    80002542:	2b87b703          	ld	a4,696(a5)
    80002546:	e8b8                	sd	a4,80(s1)
    b->prev = &bcache.head;
    80002548:	00015717          	auipc	a4,0x15
    8000254c:	db870713          	addi	a4,a4,-584 # 80017300 <bcache+0x8268>
    80002550:	e4b8                	sd	a4,72(s1)
    bcache.head.next->prev = b;
    80002552:	2b87b703          	ld	a4,696(a5)
    80002556:	e724                	sd	s1,72(a4)
    bcache.head.next = b;
    80002558:	2a97bc23          	sd	s1,696(a5)
  }
  
  release(&bcache.lock);
    8000255c:	0000d517          	auipc	a0,0xd
    80002560:	b3c50513          	addi	a0,a0,-1220 # 8000f098 <bcache>
    80002564:	00004097          	auipc	ra,0x4
    80002568:	d02080e7          	jalr	-766(ra) # 80006266 <release>
}
    8000256c:	60e2                	ld	ra,24(sp)
    8000256e:	6442                	ld	s0,16(sp)
    80002570:	64a2                	ld	s1,8(sp)
    80002572:	6902                	ld	s2,0(sp)
    80002574:	6105                	addi	sp,sp,32
    80002576:	8082                	ret
    panic("brelse");
    80002578:	00006517          	auipc	a0,0x6
    8000257c:	0c850513          	addi	a0,a0,200 # 80008640 <syscall_name+0xf0>
    80002580:	00003097          	auipc	ra,0x3
    80002584:	6e8080e7          	jalr	1768(ra) # 80005c68 <panic>

0000000080002588 <bpin>:

void
bpin(struct buf *b) {
    80002588:	1101                	addi	sp,sp,-32
    8000258a:	ec06                	sd	ra,24(sp)
    8000258c:	e822                	sd	s0,16(sp)
    8000258e:	e426                	sd	s1,8(sp)
    80002590:	1000                	addi	s0,sp,32
    80002592:	84aa                	mv	s1,a0
  acquire(&bcache.lock);
    80002594:	0000d517          	auipc	a0,0xd
    80002598:	b0450513          	addi	a0,a0,-1276 # 8000f098 <bcache>
    8000259c:	00004097          	auipc	ra,0x4
    800025a0:	c16080e7          	jalr	-1002(ra) # 800061b2 <acquire>
  b->refcnt++;
    800025a4:	40bc                	lw	a5,64(s1)
    800025a6:	2785                	addiw	a5,a5,1
    800025a8:	c0bc                	sw	a5,64(s1)
  release(&bcache.lock);
    800025aa:	0000d517          	auipc	a0,0xd
    800025ae:	aee50513          	addi	a0,a0,-1298 # 8000f098 <bcache>
    800025b2:	00004097          	auipc	ra,0x4
    800025b6:	cb4080e7          	jalr	-844(ra) # 80006266 <release>
}
    800025ba:	60e2                	ld	ra,24(sp)
    800025bc:	6442                	ld	s0,16(sp)
    800025be:	64a2                	ld	s1,8(sp)
    800025c0:	6105                	addi	sp,sp,32
    800025c2:	8082                	ret

00000000800025c4 <bunpin>:

void
bunpin(struct buf *b) {
    800025c4:	1101                	addi	sp,sp,-32
    800025c6:	ec06                	sd	ra,24(sp)
    800025c8:	e822                	sd	s0,16(sp)
    800025ca:	e426                	sd	s1,8(sp)
    800025cc:	1000                	addi	s0,sp,32
    800025ce:	84aa                	mv	s1,a0
  acquire(&bcache.lock);
    800025d0:	0000d517          	auipc	a0,0xd
    800025d4:	ac850513          	addi	a0,a0,-1336 # 8000f098 <bcache>
    800025d8:	00004097          	auipc	ra,0x4
    800025dc:	bda080e7          	jalr	-1062(ra) # 800061b2 <acquire>
  b->refcnt--;
    800025e0:	40bc                	lw	a5,64(s1)
    800025e2:	37fd                	addiw	a5,a5,-1
    800025e4:	c0bc                	sw	a5,64(s1)
  release(&bcache.lock);
    800025e6:	0000d517          	auipc	a0,0xd
    800025ea:	ab250513          	addi	a0,a0,-1358 # 8000f098 <bcache>
    800025ee:	00004097          	auipc	ra,0x4
    800025f2:	c78080e7          	jalr	-904(ra) # 80006266 <release>
}
    800025f6:	60e2                	ld	ra,24(sp)
    800025f8:	6442                	ld	s0,16(sp)
    800025fa:	64a2                	ld	s1,8(sp)
    800025fc:	6105                	addi	sp,sp,32
    800025fe:	8082                	ret

0000000080002600 <bfree>:
}

// Free a disk block.
static void
bfree(int dev, uint b)
{
    80002600:	1101                	addi	sp,sp,-32
    80002602:	ec06                	sd	ra,24(sp)
    80002604:	e822                	sd	s0,16(sp)
    80002606:	e426                	sd	s1,8(sp)
    80002608:	e04a                	sd	s2,0(sp)
    8000260a:	1000                	addi	s0,sp,32
    8000260c:	84ae                	mv	s1,a1
  struct buf *bp;
  int bi, m;

  bp = bread(dev, BBLOCK(b, sb));
    8000260e:	00d5d59b          	srliw	a1,a1,0xd
    80002612:	00015797          	auipc	a5,0x15
    80002616:	1627a783          	lw	a5,354(a5) # 80017774 <sb+0x1c>
    8000261a:	9dbd                	addw	a1,a1,a5
    8000261c:	00000097          	auipc	ra,0x0
    80002620:	d9e080e7          	jalr	-610(ra) # 800023ba <bread>
  bi = b % BPB;
  m = 1 << (bi % 8);
    80002624:	0074f713          	andi	a4,s1,7
    80002628:	4785                	li	a5,1
    8000262a:	00e797bb          	sllw	a5,a5,a4
  if((bp->data[bi/8] & m) == 0)
    8000262e:	14ce                	slli	s1,s1,0x33
    80002630:	90d9                	srli	s1,s1,0x36
    80002632:	00950733          	add	a4,a0,s1
    80002636:	05874703          	lbu	a4,88(a4)
    8000263a:	00e7f6b3          	and	a3,a5,a4
    8000263e:	c69d                	beqz	a3,8000266c <bfree+0x6c>
    80002640:	892a                	mv	s2,a0
    panic("freeing free block");
  bp->data[bi/8] &= ~m;
    80002642:	94aa                	add	s1,s1,a0
    80002644:	fff7c793          	not	a5,a5
    80002648:	8ff9                	and	a5,a5,a4
    8000264a:	04f48c23          	sb	a5,88(s1)
  log_write(bp);
    8000264e:	00001097          	auipc	ra,0x1
    80002652:	118080e7          	jalr	280(ra) # 80003766 <log_write>
  brelse(bp);
    80002656:	854a                	mv	a0,s2
    80002658:	00000097          	auipc	ra,0x0
    8000265c:	e92080e7          	jalr	-366(ra) # 800024ea <brelse>
}
    80002660:	60e2                	ld	ra,24(sp)
    80002662:	6442                	ld	s0,16(sp)
    80002664:	64a2                	ld	s1,8(sp)
    80002666:	6902                	ld	s2,0(sp)
    80002668:	6105                	addi	sp,sp,32
    8000266a:	8082                	ret
    panic("freeing free block");
    8000266c:	00006517          	auipc	a0,0x6
    80002670:	fdc50513          	addi	a0,a0,-36 # 80008648 <syscall_name+0xf8>
    80002674:	00003097          	auipc	ra,0x3
    80002678:	5f4080e7          	jalr	1524(ra) # 80005c68 <panic>

000000008000267c <balloc>:
{
    8000267c:	711d                	addi	sp,sp,-96
    8000267e:	ec86                	sd	ra,88(sp)
    80002680:	e8a2                	sd	s0,80(sp)
    80002682:	e4a6                	sd	s1,72(sp)
    80002684:	e0ca                	sd	s2,64(sp)
    80002686:	fc4e                	sd	s3,56(sp)
    80002688:	f852                	sd	s4,48(sp)
    8000268a:	f456                	sd	s5,40(sp)
    8000268c:	f05a                	sd	s6,32(sp)
    8000268e:	ec5e                	sd	s7,24(sp)
    80002690:	e862                	sd	s8,16(sp)
    80002692:	e466                	sd	s9,8(sp)
    80002694:	1080                	addi	s0,sp,96
  for(b = 0; b < sb.size; b += BPB){
    80002696:	00015797          	auipc	a5,0x15
    8000269a:	0c67a783          	lw	a5,198(a5) # 8001775c <sb+0x4>
    8000269e:	cbd1                	beqz	a5,80002732 <balloc+0xb6>
    800026a0:	8baa                	mv	s7,a0
    800026a2:	4a81                	li	s5,0
    bp = bread(dev, BBLOCK(b, sb));
    800026a4:	00015b17          	auipc	s6,0x15
    800026a8:	0b4b0b13          	addi	s6,s6,180 # 80017758 <sb>
    for(bi = 0; bi < BPB && b + bi < sb.size; bi++){
    800026ac:	4c01                	li	s8,0
      m = 1 << (bi % 8);
    800026ae:	4985                	li	s3,1
    for(bi = 0; bi < BPB && b + bi < sb.size; bi++){
    800026b0:	6a09                	lui	s4,0x2
  for(b = 0; b < sb.size; b += BPB){
    800026b2:	6c89                	lui	s9,0x2
    800026b4:	a831                	j	800026d0 <balloc+0x54>
    brelse(bp);
    800026b6:	854a                	mv	a0,s2
    800026b8:	00000097          	auipc	ra,0x0
    800026bc:	e32080e7          	jalr	-462(ra) # 800024ea <brelse>
  for(b = 0; b < sb.size; b += BPB){
    800026c0:	015c87bb          	addw	a5,s9,s5
    800026c4:	00078a9b          	sext.w	s5,a5
    800026c8:	004b2703          	lw	a4,4(s6)
    800026cc:	06eaf363          	bgeu	s5,a4,80002732 <balloc+0xb6>
    bp = bread(dev, BBLOCK(b, sb));
    800026d0:	41fad79b          	sraiw	a5,s5,0x1f
    800026d4:	0137d79b          	srliw	a5,a5,0x13
    800026d8:	015787bb          	addw	a5,a5,s5
    800026dc:	40d7d79b          	sraiw	a5,a5,0xd
    800026e0:	01cb2583          	lw	a1,28(s6)
    800026e4:	9dbd                	addw	a1,a1,a5
    800026e6:	855e                	mv	a0,s7
    800026e8:	00000097          	auipc	ra,0x0
    800026ec:	cd2080e7          	jalr	-814(ra) # 800023ba <bread>
    800026f0:	892a                	mv	s2,a0
    for(bi = 0; bi < BPB && b + bi < sb.size; bi++){
    800026f2:	004b2503          	lw	a0,4(s6)
    800026f6:	000a849b          	sext.w	s1,s5
    800026fa:	8662                	mv	a2,s8
    800026fc:	faa4fde3          	bgeu	s1,a0,800026b6 <balloc+0x3a>
      m = 1 << (bi % 8);
    80002700:	41f6579b          	sraiw	a5,a2,0x1f
    80002704:	01d7d69b          	srliw	a3,a5,0x1d
    80002708:	00c6873b          	addw	a4,a3,a2
    8000270c:	00777793          	andi	a5,a4,7
    80002710:	9f95                	subw	a5,a5,a3
    80002712:	00f997bb          	sllw	a5,s3,a5
      if((bp->data[bi/8] & m) == 0){  // Is block free?
    80002716:	4037571b          	sraiw	a4,a4,0x3
    8000271a:	00e906b3          	add	a3,s2,a4
    8000271e:	0586c683          	lbu	a3,88(a3)
    80002722:	00d7f5b3          	and	a1,a5,a3
    80002726:	cd91                	beqz	a1,80002742 <balloc+0xc6>
    for(bi = 0; bi < BPB && b + bi < sb.size; bi++){
    80002728:	2605                	addiw	a2,a2,1
    8000272a:	2485                	addiw	s1,s1,1
    8000272c:	fd4618e3          	bne	a2,s4,800026fc <balloc+0x80>
    80002730:	b759                	j	800026b6 <balloc+0x3a>
  panic("balloc: out of blocks");
    80002732:	00006517          	auipc	a0,0x6
    80002736:	f2e50513          	addi	a0,a0,-210 # 80008660 <syscall_name+0x110>
    8000273a:	00003097          	auipc	ra,0x3
    8000273e:	52e080e7          	jalr	1326(ra) # 80005c68 <panic>
        bp->data[bi/8] |= m;  // Mark block in use.
    80002742:	974a                	add	a4,a4,s2
    80002744:	8fd5                	or	a5,a5,a3
    80002746:	04f70c23          	sb	a5,88(a4)
        log_write(bp);
    8000274a:	854a                	mv	a0,s2
    8000274c:	00001097          	auipc	ra,0x1
    80002750:	01a080e7          	jalr	26(ra) # 80003766 <log_write>
        brelse(bp);
    80002754:	854a                	mv	a0,s2
    80002756:	00000097          	auipc	ra,0x0
    8000275a:	d94080e7          	jalr	-620(ra) # 800024ea <brelse>
  bp = bread(dev, bno);
    8000275e:	85a6                	mv	a1,s1
    80002760:	855e                	mv	a0,s7
    80002762:	00000097          	auipc	ra,0x0
    80002766:	c58080e7          	jalr	-936(ra) # 800023ba <bread>
    8000276a:	892a                	mv	s2,a0
  memset(bp->data, 0, BSIZE);
    8000276c:	40000613          	li	a2,1024
    80002770:	4581                	li	a1,0
    80002772:	05850513          	addi	a0,a0,88
    80002776:	ffffe097          	auipc	ra,0xffffe
    8000277a:	a4c080e7          	jalr	-1460(ra) # 800001c2 <memset>
  log_write(bp);
    8000277e:	854a                	mv	a0,s2
    80002780:	00001097          	auipc	ra,0x1
    80002784:	fe6080e7          	jalr	-26(ra) # 80003766 <log_write>
  brelse(bp);
    80002788:	854a                	mv	a0,s2
    8000278a:	00000097          	auipc	ra,0x0
    8000278e:	d60080e7          	jalr	-672(ra) # 800024ea <brelse>
}
    80002792:	8526                	mv	a0,s1
    80002794:	60e6                	ld	ra,88(sp)
    80002796:	6446                	ld	s0,80(sp)
    80002798:	64a6                	ld	s1,72(sp)
    8000279a:	6906                	ld	s2,64(sp)
    8000279c:	79e2                	ld	s3,56(sp)
    8000279e:	7a42                	ld	s4,48(sp)
    800027a0:	7aa2                	ld	s5,40(sp)
    800027a2:	7b02                	ld	s6,32(sp)
    800027a4:	6be2                	ld	s7,24(sp)
    800027a6:	6c42                	ld	s8,16(sp)
    800027a8:	6ca2                	ld	s9,8(sp)
    800027aa:	6125                	addi	sp,sp,96
    800027ac:	8082                	ret

00000000800027ae <bmap>:

// Return the disk block address of the nth block in inode ip.
// If there is no such block, bmap allocates one.
static uint
bmap(struct inode *ip, uint bn)
{
    800027ae:	7179                	addi	sp,sp,-48
    800027b0:	f406                	sd	ra,40(sp)
    800027b2:	f022                	sd	s0,32(sp)
    800027b4:	ec26                	sd	s1,24(sp)
    800027b6:	e84a                	sd	s2,16(sp)
    800027b8:	e44e                	sd	s3,8(sp)
    800027ba:	e052                	sd	s4,0(sp)
    800027bc:	1800                	addi	s0,sp,48
    800027be:	892a                	mv	s2,a0
  uint addr, *a;
  struct buf *bp;

  if(bn < NDIRECT){
    800027c0:	47ad                	li	a5,11
    800027c2:	04b7fe63          	bgeu	a5,a1,8000281e <bmap+0x70>
    if((addr = ip->addrs[bn]) == 0)
      ip->addrs[bn] = addr = balloc(ip->dev);
    return addr;
  }
  bn -= NDIRECT;
    800027c6:	ff45849b          	addiw	s1,a1,-12
    800027ca:	0004871b          	sext.w	a4,s1

  if(bn < NINDIRECT){
    800027ce:	0ff00793          	li	a5,255
    800027d2:	0ae7e363          	bltu	a5,a4,80002878 <bmap+0xca>
    // Load indirect block, allocating if necessary.
    if((addr = ip->addrs[NDIRECT]) == 0)
    800027d6:	08052583          	lw	a1,128(a0)
    800027da:	c5ad                	beqz	a1,80002844 <bmap+0x96>
      ip->addrs[NDIRECT] = addr = balloc(ip->dev);
    bp = bread(ip->dev, addr);
    800027dc:	00092503          	lw	a0,0(s2)
    800027e0:	00000097          	auipc	ra,0x0
    800027e4:	bda080e7          	jalr	-1062(ra) # 800023ba <bread>
    800027e8:	8a2a                	mv	s4,a0
    a = (uint*)bp->data;
    800027ea:	05850793          	addi	a5,a0,88
    if((addr = a[bn]) == 0){
    800027ee:	02049593          	slli	a1,s1,0x20
    800027f2:	9181                	srli	a1,a1,0x20
    800027f4:	058a                	slli	a1,a1,0x2
    800027f6:	00b784b3          	add	s1,a5,a1
    800027fa:	0004a983          	lw	s3,0(s1)
    800027fe:	04098d63          	beqz	s3,80002858 <bmap+0xaa>
      a[bn] = addr = balloc(ip->dev);
      log_write(bp);
    }
    brelse(bp);
    80002802:	8552                	mv	a0,s4
    80002804:	00000097          	auipc	ra,0x0
    80002808:	ce6080e7          	jalr	-794(ra) # 800024ea <brelse>
    return addr;
  }

  panic("bmap: out of range");
}
    8000280c:	854e                	mv	a0,s3
    8000280e:	70a2                	ld	ra,40(sp)
    80002810:	7402                	ld	s0,32(sp)
    80002812:	64e2                	ld	s1,24(sp)
    80002814:	6942                	ld	s2,16(sp)
    80002816:	69a2                	ld	s3,8(sp)
    80002818:	6a02                	ld	s4,0(sp)
    8000281a:	6145                	addi	sp,sp,48
    8000281c:	8082                	ret
    if((addr = ip->addrs[bn]) == 0)
    8000281e:	02059493          	slli	s1,a1,0x20
    80002822:	9081                	srli	s1,s1,0x20
    80002824:	048a                	slli	s1,s1,0x2
    80002826:	94aa                	add	s1,s1,a0
    80002828:	0504a983          	lw	s3,80(s1)
    8000282c:	fe0990e3          	bnez	s3,8000280c <bmap+0x5e>
      ip->addrs[bn] = addr = balloc(ip->dev);
    80002830:	4108                	lw	a0,0(a0)
    80002832:	00000097          	auipc	ra,0x0
    80002836:	e4a080e7          	jalr	-438(ra) # 8000267c <balloc>
    8000283a:	0005099b          	sext.w	s3,a0
    8000283e:	0534a823          	sw	s3,80(s1)
    80002842:	b7e9                	j	8000280c <bmap+0x5e>
      ip->addrs[NDIRECT] = addr = balloc(ip->dev);
    80002844:	4108                	lw	a0,0(a0)
    80002846:	00000097          	auipc	ra,0x0
    8000284a:	e36080e7          	jalr	-458(ra) # 8000267c <balloc>
    8000284e:	0005059b          	sext.w	a1,a0
    80002852:	08b92023          	sw	a1,128(s2)
    80002856:	b759                	j	800027dc <bmap+0x2e>
      a[bn] = addr = balloc(ip->dev);
    80002858:	00092503          	lw	a0,0(s2)
    8000285c:	00000097          	auipc	ra,0x0
    80002860:	e20080e7          	jalr	-480(ra) # 8000267c <balloc>
    80002864:	0005099b          	sext.w	s3,a0
    80002868:	0134a023          	sw	s3,0(s1)
      log_write(bp);
    8000286c:	8552                	mv	a0,s4
    8000286e:	00001097          	auipc	ra,0x1
    80002872:	ef8080e7          	jalr	-264(ra) # 80003766 <log_write>
    80002876:	b771                	j	80002802 <bmap+0x54>
  panic("bmap: out of range");
    80002878:	00006517          	auipc	a0,0x6
    8000287c:	e0050513          	addi	a0,a0,-512 # 80008678 <syscall_name+0x128>
    80002880:	00003097          	auipc	ra,0x3
    80002884:	3e8080e7          	jalr	1000(ra) # 80005c68 <panic>

0000000080002888 <iget>:
{
    80002888:	7179                	addi	sp,sp,-48
    8000288a:	f406                	sd	ra,40(sp)
    8000288c:	f022                	sd	s0,32(sp)
    8000288e:	ec26                	sd	s1,24(sp)
    80002890:	e84a                	sd	s2,16(sp)
    80002892:	e44e                	sd	s3,8(sp)
    80002894:	e052                	sd	s4,0(sp)
    80002896:	1800                	addi	s0,sp,48
    80002898:	89aa                	mv	s3,a0
    8000289a:	8a2e                	mv	s4,a1
  acquire(&itable.lock);
    8000289c:	00015517          	auipc	a0,0x15
    800028a0:	edc50513          	addi	a0,a0,-292 # 80017778 <itable>
    800028a4:	00004097          	auipc	ra,0x4
    800028a8:	90e080e7          	jalr	-1778(ra) # 800061b2 <acquire>
  empty = 0;
    800028ac:	4901                	li	s2,0
  for(ip = &itable.inode[0]; ip < &itable.inode[NINODE]; ip++){
    800028ae:	00015497          	auipc	s1,0x15
    800028b2:	ee248493          	addi	s1,s1,-286 # 80017790 <itable+0x18>
    800028b6:	00017697          	auipc	a3,0x17
    800028ba:	96a68693          	addi	a3,a3,-1686 # 80019220 <log>
    800028be:	a039                	j	800028cc <iget+0x44>
    if(empty == 0 && ip->ref == 0)    // Remember empty slot.
    800028c0:	02090b63          	beqz	s2,800028f6 <iget+0x6e>
  for(ip = &itable.inode[0]; ip < &itable.inode[NINODE]; ip++){
    800028c4:	08848493          	addi	s1,s1,136
    800028c8:	02d48a63          	beq	s1,a3,800028fc <iget+0x74>
    if(ip->ref > 0 && ip->dev == dev && ip->inum == inum){
    800028cc:	449c                	lw	a5,8(s1)
    800028ce:	fef059e3          	blez	a5,800028c0 <iget+0x38>
    800028d2:	4098                	lw	a4,0(s1)
    800028d4:	ff3716e3          	bne	a4,s3,800028c0 <iget+0x38>
    800028d8:	40d8                	lw	a4,4(s1)
    800028da:	ff4713e3          	bne	a4,s4,800028c0 <iget+0x38>
      ip->ref++;
    800028de:	2785                	addiw	a5,a5,1
    800028e0:	c49c                	sw	a5,8(s1)
      release(&itable.lock);
    800028e2:	00015517          	auipc	a0,0x15
    800028e6:	e9650513          	addi	a0,a0,-362 # 80017778 <itable>
    800028ea:	00004097          	auipc	ra,0x4
    800028ee:	97c080e7          	jalr	-1668(ra) # 80006266 <release>
      return ip;
    800028f2:	8926                	mv	s2,s1
    800028f4:	a03d                	j	80002922 <iget+0x9a>
    if(empty == 0 && ip->ref == 0)    // Remember empty slot.
    800028f6:	f7f9                	bnez	a5,800028c4 <iget+0x3c>
    800028f8:	8926                	mv	s2,s1
    800028fa:	b7e9                	j	800028c4 <iget+0x3c>
  if(empty == 0)
    800028fc:	02090c63          	beqz	s2,80002934 <iget+0xac>
  ip->dev = dev;
    80002900:	01392023          	sw	s3,0(s2)
  ip->inum = inum;
    80002904:	01492223          	sw	s4,4(s2)
  ip->ref = 1;
    80002908:	4785                	li	a5,1
    8000290a:	00f92423          	sw	a5,8(s2)
  ip->valid = 0;
    8000290e:	04092023          	sw	zero,64(s2)
  release(&itable.lock);
    80002912:	00015517          	auipc	a0,0x15
    80002916:	e6650513          	addi	a0,a0,-410 # 80017778 <itable>
    8000291a:	00004097          	auipc	ra,0x4
    8000291e:	94c080e7          	jalr	-1716(ra) # 80006266 <release>
}
    80002922:	854a                	mv	a0,s2
    80002924:	70a2                	ld	ra,40(sp)
    80002926:	7402                	ld	s0,32(sp)
    80002928:	64e2                	ld	s1,24(sp)
    8000292a:	6942                	ld	s2,16(sp)
    8000292c:	69a2                	ld	s3,8(sp)
    8000292e:	6a02                	ld	s4,0(sp)
    80002930:	6145                	addi	sp,sp,48
    80002932:	8082                	ret
    panic("iget: no inodes");
    80002934:	00006517          	auipc	a0,0x6
    80002938:	d5c50513          	addi	a0,a0,-676 # 80008690 <syscall_name+0x140>
    8000293c:	00003097          	auipc	ra,0x3
    80002940:	32c080e7          	jalr	812(ra) # 80005c68 <panic>

0000000080002944 <fsinit>:
fsinit(int dev) {
    80002944:	7179                	addi	sp,sp,-48
    80002946:	f406                	sd	ra,40(sp)
    80002948:	f022                	sd	s0,32(sp)
    8000294a:	ec26                	sd	s1,24(sp)
    8000294c:	e84a                	sd	s2,16(sp)
    8000294e:	e44e                	sd	s3,8(sp)
    80002950:	1800                	addi	s0,sp,48
    80002952:	892a                	mv	s2,a0
  bp = bread(dev, 1);
    80002954:	4585                	li	a1,1
    80002956:	00000097          	auipc	ra,0x0
    8000295a:	a64080e7          	jalr	-1436(ra) # 800023ba <bread>
    8000295e:	84aa                	mv	s1,a0
  memmove(sb, bp->data, sizeof(*sb));
    80002960:	00015997          	auipc	s3,0x15
    80002964:	df898993          	addi	s3,s3,-520 # 80017758 <sb>
    80002968:	02000613          	li	a2,32
    8000296c:	05850593          	addi	a1,a0,88
    80002970:	854e                	mv	a0,s3
    80002972:	ffffe097          	auipc	ra,0xffffe
    80002976:	8b0080e7          	jalr	-1872(ra) # 80000222 <memmove>
  brelse(bp);
    8000297a:	8526                	mv	a0,s1
    8000297c:	00000097          	auipc	ra,0x0
    80002980:	b6e080e7          	jalr	-1170(ra) # 800024ea <brelse>
  if(sb.magic != FSMAGIC)
    80002984:	0009a703          	lw	a4,0(s3)
    80002988:	102037b7          	lui	a5,0x10203
    8000298c:	04078793          	addi	a5,a5,64 # 10203040 <_entry-0x6fdfcfc0>
    80002990:	02f71263          	bne	a4,a5,800029b4 <fsinit+0x70>
  initlog(dev, &sb);
    80002994:	00015597          	auipc	a1,0x15
    80002998:	dc458593          	addi	a1,a1,-572 # 80017758 <sb>
    8000299c:	854a                	mv	a0,s2
    8000299e:	00001097          	auipc	ra,0x1
    800029a2:	b4c080e7          	jalr	-1204(ra) # 800034ea <initlog>
}
    800029a6:	70a2                	ld	ra,40(sp)
    800029a8:	7402                	ld	s0,32(sp)
    800029aa:	64e2                	ld	s1,24(sp)
    800029ac:	6942                	ld	s2,16(sp)
    800029ae:	69a2                	ld	s3,8(sp)
    800029b0:	6145                	addi	sp,sp,48
    800029b2:	8082                	ret
    panic("invalid file system");
    800029b4:	00006517          	auipc	a0,0x6
    800029b8:	cec50513          	addi	a0,a0,-788 # 800086a0 <syscall_name+0x150>
    800029bc:	00003097          	auipc	ra,0x3
    800029c0:	2ac080e7          	jalr	684(ra) # 80005c68 <panic>

00000000800029c4 <iinit>:
{
    800029c4:	7179                	addi	sp,sp,-48
    800029c6:	f406                	sd	ra,40(sp)
    800029c8:	f022                	sd	s0,32(sp)
    800029ca:	ec26                	sd	s1,24(sp)
    800029cc:	e84a                	sd	s2,16(sp)
    800029ce:	e44e                	sd	s3,8(sp)
    800029d0:	1800                	addi	s0,sp,48
  initlock(&itable.lock, "itable");
    800029d2:	00006597          	auipc	a1,0x6
    800029d6:	ce658593          	addi	a1,a1,-794 # 800086b8 <syscall_name+0x168>
    800029da:	00015517          	auipc	a0,0x15
    800029de:	d9e50513          	addi	a0,a0,-610 # 80017778 <itable>
    800029e2:	00003097          	auipc	ra,0x3
    800029e6:	740080e7          	jalr	1856(ra) # 80006122 <initlock>
  for(i = 0; i < NINODE; i++) {
    800029ea:	00015497          	auipc	s1,0x15
    800029ee:	db648493          	addi	s1,s1,-586 # 800177a0 <itable+0x28>
    800029f2:	00017997          	auipc	s3,0x17
    800029f6:	83e98993          	addi	s3,s3,-1986 # 80019230 <log+0x10>
    initsleeplock(&itable.inode[i].lock, "inode");
    800029fa:	00006917          	auipc	s2,0x6
    800029fe:	cc690913          	addi	s2,s2,-826 # 800086c0 <syscall_name+0x170>
    80002a02:	85ca                	mv	a1,s2
    80002a04:	8526                	mv	a0,s1
    80002a06:	00001097          	auipc	ra,0x1
    80002a0a:	e46080e7          	jalr	-442(ra) # 8000384c <initsleeplock>
  for(i = 0; i < NINODE; i++) {
    80002a0e:	08848493          	addi	s1,s1,136
    80002a12:	ff3498e3          	bne	s1,s3,80002a02 <iinit+0x3e>
}
    80002a16:	70a2                	ld	ra,40(sp)
    80002a18:	7402                	ld	s0,32(sp)
    80002a1a:	64e2                	ld	s1,24(sp)
    80002a1c:	6942                	ld	s2,16(sp)
    80002a1e:	69a2                	ld	s3,8(sp)
    80002a20:	6145                	addi	sp,sp,48
    80002a22:	8082                	ret

0000000080002a24 <ialloc>:
{
    80002a24:	715d                	addi	sp,sp,-80
    80002a26:	e486                	sd	ra,72(sp)
    80002a28:	e0a2                	sd	s0,64(sp)
    80002a2a:	fc26                	sd	s1,56(sp)
    80002a2c:	f84a                	sd	s2,48(sp)
    80002a2e:	f44e                	sd	s3,40(sp)
    80002a30:	f052                	sd	s4,32(sp)
    80002a32:	ec56                	sd	s5,24(sp)
    80002a34:	e85a                	sd	s6,16(sp)
    80002a36:	e45e                	sd	s7,8(sp)
    80002a38:	0880                	addi	s0,sp,80
  for(inum = 1; inum < sb.ninodes; inum++){
    80002a3a:	00015717          	auipc	a4,0x15
    80002a3e:	d2a72703          	lw	a4,-726(a4) # 80017764 <sb+0xc>
    80002a42:	4785                	li	a5,1
    80002a44:	04e7fa63          	bgeu	a5,a4,80002a98 <ialloc+0x74>
    80002a48:	8aaa                	mv	s5,a0
    80002a4a:	8bae                	mv	s7,a1
    80002a4c:	4485                	li	s1,1
    bp = bread(dev, IBLOCK(inum, sb));
    80002a4e:	00015a17          	auipc	s4,0x15
    80002a52:	d0aa0a13          	addi	s4,s4,-758 # 80017758 <sb>
    80002a56:	00048b1b          	sext.w	s6,s1
    80002a5a:	0044d593          	srli	a1,s1,0x4
    80002a5e:	018a2783          	lw	a5,24(s4)
    80002a62:	9dbd                	addw	a1,a1,a5
    80002a64:	8556                	mv	a0,s5
    80002a66:	00000097          	auipc	ra,0x0
    80002a6a:	954080e7          	jalr	-1708(ra) # 800023ba <bread>
    80002a6e:	892a                	mv	s2,a0
    dip = (struct dinode*)bp->data + inum%IPB;
    80002a70:	05850993          	addi	s3,a0,88
    80002a74:	00f4f793          	andi	a5,s1,15
    80002a78:	079a                	slli	a5,a5,0x6
    80002a7a:	99be                	add	s3,s3,a5
    if(dip->type == 0){  // a free inode
    80002a7c:	00099783          	lh	a5,0(s3)
    80002a80:	c785                	beqz	a5,80002aa8 <ialloc+0x84>
    brelse(bp);
    80002a82:	00000097          	auipc	ra,0x0
    80002a86:	a68080e7          	jalr	-1432(ra) # 800024ea <brelse>
  for(inum = 1; inum < sb.ninodes; inum++){
    80002a8a:	0485                	addi	s1,s1,1
    80002a8c:	00ca2703          	lw	a4,12(s4)
    80002a90:	0004879b          	sext.w	a5,s1
    80002a94:	fce7e1e3          	bltu	a5,a4,80002a56 <ialloc+0x32>
  panic("ialloc: no inodes");
    80002a98:	00006517          	auipc	a0,0x6
    80002a9c:	c3050513          	addi	a0,a0,-976 # 800086c8 <syscall_name+0x178>
    80002aa0:	00003097          	auipc	ra,0x3
    80002aa4:	1c8080e7          	jalr	456(ra) # 80005c68 <panic>
      memset(dip, 0, sizeof(*dip));
    80002aa8:	04000613          	li	a2,64
    80002aac:	4581                	li	a1,0
    80002aae:	854e                	mv	a0,s3
    80002ab0:	ffffd097          	auipc	ra,0xffffd
    80002ab4:	712080e7          	jalr	1810(ra) # 800001c2 <memset>
      dip->type = type;
    80002ab8:	01799023          	sh	s7,0(s3)
      log_write(bp);   // mark it allocated on the disk
    80002abc:	854a                	mv	a0,s2
    80002abe:	00001097          	auipc	ra,0x1
    80002ac2:	ca8080e7          	jalr	-856(ra) # 80003766 <log_write>
      brelse(bp);
    80002ac6:	854a                	mv	a0,s2
    80002ac8:	00000097          	auipc	ra,0x0
    80002acc:	a22080e7          	jalr	-1502(ra) # 800024ea <brelse>
      return iget(dev, inum);
    80002ad0:	85da                	mv	a1,s6
    80002ad2:	8556                	mv	a0,s5
    80002ad4:	00000097          	auipc	ra,0x0
    80002ad8:	db4080e7          	jalr	-588(ra) # 80002888 <iget>
}
    80002adc:	60a6                	ld	ra,72(sp)
    80002ade:	6406                	ld	s0,64(sp)
    80002ae0:	74e2                	ld	s1,56(sp)
    80002ae2:	7942                	ld	s2,48(sp)
    80002ae4:	79a2                	ld	s3,40(sp)
    80002ae6:	7a02                	ld	s4,32(sp)
    80002ae8:	6ae2                	ld	s5,24(sp)
    80002aea:	6b42                	ld	s6,16(sp)
    80002aec:	6ba2                	ld	s7,8(sp)
    80002aee:	6161                	addi	sp,sp,80
    80002af0:	8082                	ret

0000000080002af2 <iupdate>:
{
    80002af2:	1101                	addi	sp,sp,-32
    80002af4:	ec06                	sd	ra,24(sp)
    80002af6:	e822                	sd	s0,16(sp)
    80002af8:	e426                	sd	s1,8(sp)
    80002afa:	e04a                	sd	s2,0(sp)
    80002afc:	1000                	addi	s0,sp,32
    80002afe:	84aa                	mv	s1,a0
  bp = bread(ip->dev, IBLOCK(ip->inum, sb));
    80002b00:	415c                	lw	a5,4(a0)
    80002b02:	0047d79b          	srliw	a5,a5,0x4
    80002b06:	00015597          	auipc	a1,0x15
    80002b0a:	c6a5a583          	lw	a1,-918(a1) # 80017770 <sb+0x18>
    80002b0e:	9dbd                	addw	a1,a1,a5
    80002b10:	4108                	lw	a0,0(a0)
    80002b12:	00000097          	auipc	ra,0x0
    80002b16:	8a8080e7          	jalr	-1880(ra) # 800023ba <bread>
    80002b1a:	892a                	mv	s2,a0
  dip = (struct dinode*)bp->data + ip->inum%IPB;
    80002b1c:	05850793          	addi	a5,a0,88
    80002b20:	40c8                	lw	a0,4(s1)
    80002b22:	893d                	andi	a0,a0,15
    80002b24:	051a                	slli	a0,a0,0x6
    80002b26:	953e                	add	a0,a0,a5
  dip->type = ip->type;
    80002b28:	04449703          	lh	a4,68(s1)
    80002b2c:	00e51023          	sh	a4,0(a0)
  dip->major = ip->major;
    80002b30:	04649703          	lh	a4,70(s1)
    80002b34:	00e51123          	sh	a4,2(a0)
  dip->minor = ip->minor;
    80002b38:	04849703          	lh	a4,72(s1)
    80002b3c:	00e51223          	sh	a4,4(a0)
  dip->nlink = ip->nlink;
    80002b40:	04a49703          	lh	a4,74(s1)
    80002b44:	00e51323          	sh	a4,6(a0)
  dip->size = ip->size;
    80002b48:	44f8                	lw	a4,76(s1)
    80002b4a:	c518                	sw	a4,8(a0)
  memmove(dip->addrs, ip->addrs, sizeof(ip->addrs));
    80002b4c:	03400613          	li	a2,52
    80002b50:	05048593          	addi	a1,s1,80
    80002b54:	0531                	addi	a0,a0,12
    80002b56:	ffffd097          	auipc	ra,0xffffd
    80002b5a:	6cc080e7          	jalr	1740(ra) # 80000222 <memmove>
  log_write(bp);
    80002b5e:	854a                	mv	a0,s2
    80002b60:	00001097          	auipc	ra,0x1
    80002b64:	c06080e7          	jalr	-1018(ra) # 80003766 <log_write>
  brelse(bp);
    80002b68:	854a                	mv	a0,s2
    80002b6a:	00000097          	auipc	ra,0x0
    80002b6e:	980080e7          	jalr	-1664(ra) # 800024ea <brelse>
}
    80002b72:	60e2                	ld	ra,24(sp)
    80002b74:	6442                	ld	s0,16(sp)
    80002b76:	64a2                	ld	s1,8(sp)
    80002b78:	6902                	ld	s2,0(sp)
    80002b7a:	6105                	addi	sp,sp,32
    80002b7c:	8082                	ret

0000000080002b7e <idup>:
{
    80002b7e:	1101                	addi	sp,sp,-32
    80002b80:	ec06                	sd	ra,24(sp)
    80002b82:	e822                	sd	s0,16(sp)
    80002b84:	e426                	sd	s1,8(sp)
    80002b86:	1000                	addi	s0,sp,32
    80002b88:	84aa                	mv	s1,a0
  acquire(&itable.lock);
    80002b8a:	00015517          	auipc	a0,0x15
    80002b8e:	bee50513          	addi	a0,a0,-1042 # 80017778 <itable>
    80002b92:	00003097          	auipc	ra,0x3
    80002b96:	620080e7          	jalr	1568(ra) # 800061b2 <acquire>
  ip->ref++;
    80002b9a:	449c                	lw	a5,8(s1)
    80002b9c:	2785                	addiw	a5,a5,1
    80002b9e:	c49c                	sw	a5,8(s1)
  release(&itable.lock);
    80002ba0:	00015517          	auipc	a0,0x15
    80002ba4:	bd850513          	addi	a0,a0,-1064 # 80017778 <itable>
    80002ba8:	00003097          	auipc	ra,0x3
    80002bac:	6be080e7          	jalr	1726(ra) # 80006266 <release>
}
    80002bb0:	8526                	mv	a0,s1
    80002bb2:	60e2                	ld	ra,24(sp)
    80002bb4:	6442                	ld	s0,16(sp)
    80002bb6:	64a2                	ld	s1,8(sp)
    80002bb8:	6105                	addi	sp,sp,32
    80002bba:	8082                	ret

0000000080002bbc <ilock>:
{
    80002bbc:	1101                	addi	sp,sp,-32
    80002bbe:	ec06                	sd	ra,24(sp)
    80002bc0:	e822                	sd	s0,16(sp)
    80002bc2:	e426                	sd	s1,8(sp)
    80002bc4:	e04a                	sd	s2,0(sp)
    80002bc6:	1000                	addi	s0,sp,32
  if(ip == 0 || ip->ref < 1)
    80002bc8:	c115                	beqz	a0,80002bec <ilock+0x30>
    80002bca:	84aa                	mv	s1,a0
    80002bcc:	451c                	lw	a5,8(a0)
    80002bce:	00f05f63          	blez	a5,80002bec <ilock+0x30>
  acquiresleep(&ip->lock);
    80002bd2:	0541                	addi	a0,a0,16
    80002bd4:	00001097          	auipc	ra,0x1
    80002bd8:	cb2080e7          	jalr	-846(ra) # 80003886 <acquiresleep>
  if(ip->valid == 0){
    80002bdc:	40bc                	lw	a5,64(s1)
    80002bde:	cf99                	beqz	a5,80002bfc <ilock+0x40>
}
    80002be0:	60e2                	ld	ra,24(sp)
    80002be2:	6442                	ld	s0,16(sp)
    80002be4:	64a2                	ld	s1,8(sp)
    80002be6:	6902                	ld	s2,0(sp)
    80002be8:	6105                	addi	sp,sp,32
    80002bea:	8082                	ret
    panic("ilock");
    80002bec:	00006517          	auipc	a0,0x6
    80002bf0:	af450513          	addi	a0,a0,-1292 # 800086e0 <syscall_name+0x190>
    80002bf4:	00003097          	auipc	ra,0x3
    80002bf8:	074080e7          	jalr	116(ra) # 80005c68 <panic>
    bp = bread(ip->dev, IBLOCK(ip->inum, sb));
    80002bfc:	40dc                	lw	a5,4(s1)
    80002bfe:	0047d79b          	srliw	a5,a5,0x4
    80002c02:	00015597          	auipc	a1,0x15
    80002c06:	b6e5a583          	lw	a1,-1170(a1) # 80017770 <sb+0x18>
    80002c0a:	9dbd                	addw	a1,a1,a5
    80002c0c:	4088                	lw	a0,0(s1)
    80002c0e:	fffff097          	auipc	ra,0xfffff
    80002c12:	7ac080e7          	jalr	1964(ra) # 800023ba <bread>
    80002c16:	892a                	mv	s2,a0
    dip = (struct dinode*)bp->data + ip->inum%IPB;
    80002c18:	05850593          	addi	a1,a0,88
    80002c1c:	40dc                	lw	a5,4(s1)
    80002c1e:	8bbd                	andi	a5,a5,15
    80002c20:	079a                	slli	a5,a5,0x6
    80002c22:	95be                	add	a1,a1,a5
    ip->type = dip->type;
    80002c24:	00059783          	lh	a5,0(a1)
    80002c28:	04f49223          	sh	a5,68(s1)
    ip->major = dip->major;
    80002c2c:	00259783          	lh	a5,2(a1)
    80002c30:	04f49323          	sh	a5,70(s1)
    ip->minor = dip->minor;
    80002c34:	00459783          	lh	a5,4(a1)
    80002c38:	04f49423          	sh	a5,72(s1)
    ip->nlink = dip->nlink;
    80002c3c:	00659783          	lh	a5,6(a1)
    80002c40:	04f49523          	sh	a5,74(s1)
    ip->size = dip->size;
    80002c44:	459c                	lw	a5,8(a1)
    80002c46:	c4fc                	sw	a5,76(s1)
    memmove(ip->addrs, dip->addrs, sizeof(ip->addrs));
    80002c48:	03400613          	li	a2,52
    80002c4c:	05b1                	addi	a1,a1,12
    80002c4e:	05048513          	addi	a0,s1,80
    80002c52:	ffffd097          	auipc	ra,0xffffd
    80002c56:	5d0080e7          	jalr	1488(ra) # 80000222 <memmove>
    brelse(bp);
    80002c5a:	854a                	mv	a0,s2
    80002c5c:	00000097          	auipc	ra,0x0
    80002c60:	88e080e7          	jalr	-1906(ra) # 800024ea <brelse>
    ip->valid = 1;
    80002c64:	4785                	li	a5,1
    80002c66:	c0bc                	sw	a5,64(s1)
    if(ip->type == 0)
    80002c68:	04449783          	lh	a5,68(s1)
    80002c6c:	fbb5                	bnez	a5,80002be0 <ilock+0x24>
      panic("ilock: no type");
    80002c6e:	00006517          	auipc	a0,0x6
    80002c72:	a7a50513          	addi	a0,a0,-1414 # 800086e8 <syscall_name+0x198>
    80002c76:	00003097          	auipc	ra,0x3
    80002c7a:	ff2080e7          	jalr	-14(ra) # 80005c68 <panic>

0000000080002c7e <iunlock>:
{
    80002c7e:	1101                	addi	sp,sp,-32
    80002c80:	ec06                	sd	ra,24(sp)
    80002c82:	e822                	sd	s0,16(sp)
    80002c84:	e426                	sd	s1,8(sp)
    80002c86:	e04a                	sd	s2,0(sp)
    80002c88:	1000                	addi	s0,sp,32
  if(ip == 0 || !holdingsleep(&ip->lock) || ip->ref < 1)
