
kernel/kernel:     file format elf64-littleriscv


Disassembly of section .text:

0000000080000000 <_entry>:
    80000000:	0003e117          	auipc	sp,0x3e
    80000004:	14010113          	addi	sp,sp,320 # 8003e140 <stack0>
    80000008:	6505                	lui	a0,0x1
    8000000a:	f14025f3          	csrr	a1,mhartid
    8000000e:	0585                	addi	a1,a1,1
    80000010:	02b50533          	mul	a0,a0,a1
    80000014:	912a                	add	sp,sp,a0
    80000016:	083050ef          	jal	ra,80005898 <start>

000000008000001a <spin>:
    8000001a:	a001                	j	8000001a <spin>

000000008000001c <add_rc>:
static int reference_count[(PHYSTOP - 0x80000000) / PGSIZE];

static int idx_rc(uint64 pa){
    return (pa - 0x80000000) / PGSIZE;
}
void add_rc(uint64 pa){
    8000001c:	1141                	addi	sp,sp,-16
    8000001e:	e422                	sd	s0,8(sp)
    80000020:	0800                	addi	s0,sp,16
    return (pa - 0x80000000) / PGSIZE;
    80000022:	800007b7          	lui	a5,0x80000
    80000026:	97aa                	add	a5,a5,a0
    80000028:	83b1                	srli	a5,a5,0xc
    8000002a:	2781                	sext.w	a5,a5
    reference_count[idx_rc(pa)]++;
    8000002c:	078a                	slli	a5,a5,0x2
    8000002e:	00009717          	auipc	a4,0x9
    80000032:	02270713          	addi	a4,a4,34 # 80009050 <reference_count>
    80000036:	97ba                	add	a5,a5,a4
    80000038:	4398                	lw	a4,0(a5)
    8000003a:	2705                	addiw	a4,a4,1
    8000003c:	c398                	sw	a4,0(a5)
    //printf("addrc,pa = %p,rc = %d\n",pa,reference_count[idx_rc(pa)]);
}
    8000003e:	6422                	ld	s0,8(sp)
    80000040:	0141                	addi	sp,sp,16
    80000042:	8082                	ret

0000000080000044 <sub_rc>:
void sub_rc(uint64 pa){
    80000044:	1141                	addi	sp,sp,-16
    80000046:	e422                	sd	s0,8(sp)
    80000048:	0800                	addi	s0,sp,16
    return (pa - 0x80000000) / PGSIZE;
    8000004a:	800007b7          	lui	a5,0x80000
    8000004e:	97aa                	add	a5,a5,a0
    80000050:	83b1                	srli	a5,a5,0xc
    80000052:	2781                	sext.w	a5,a5
    reference_count[idx_rc(pa)]--;
    80000054:	078a                	slli	a5,a5,0x2
    80000056:	00009717          	auipc	a4,0x9
    8000005a:	ffa70713          	addi	a4,a4,-6 # 80009050 <reference_count>
    8000005e:	97ba                	add	a5,a5,a4
    80000060:	4398                	lw	a4,0(a5)
    80000062:	377d                	addiw	a4,a4,-1
    80000064:	c398                	sw	a4,0(a5)
    //printf("subrc,pa = %p,rc = %d\n",pa,reference_count[idx_rc(pa)]);
}
    80000066:	6422                	ld	s0,8(sp)
    80000068:	0141                	addi	sp,sp,16
    8000006a:	8082                	ret

000000008000006c <kfree>:
// which normally should have been returned by a
// call to kalloc().  (The exception is when
// initializing the allocator; see kinit above.)
void
kfree(void *pa)
{
    8000006c:	7179                	addi	sp,sp,-48
    8000006e:	f406                	sd	ra,40(sp)
    80000070:	f022                	sd	s0,32(sp)
    80000072:	ec26                	sd	s1,24(sp)
    80000074:	e84a                	sd	s2,16(sp)
    80000076:	e44e                	sd	s3,8(sp)
    80000078:	1800                	addi	s0,sp,48
  struct run *r;

  if(((uint64)pa % PGSIZE) != 0 || (char*)pa < end || (uint64)pa >= PHYSTOP)
    8000007a:	03451793          	slli	a5,a0,0x34
    8000007e:	e7c9                	bnez	a5,80000108 <kfree+0x9c>
    80000080:	892a                	mv	s2,a0
    80000082:	00046797          	auipc	a5,0x46
    80000086:	1be78793          	addi	a5,a5,446 # 80046240 <end>
    8000008a:	06f56f63          	bltu	a0,a5,80000108 <kfree+0x9c>
    8000008e:	47c5                	li	a5,17
    80000090:	07ee                	slli	a5,a5,0x1b
    80000092:	06f57b63          	bgeu	a0,a5,80000108 <kfree+0x9c>
    return (pa - 0x80000000) / PGSIZE;
    80000096:	800004b7          	lui	s1,0x80000
    8000009a:	94aa                	add	s1,s1,a0
    8000009c:	80b1                	srli	s1,s1,0xc
    8000009e:	2481                	sext.w	s1,s1
    panic("kfree");
  if(reference_count[idx_rc((uint64)pa)] > 1){
    800000a0:	00249713          	slli	a4,s1,0x2
    800000a4:	00009797          	auipc	a5,0x9
    800000a8:	fac78793          	addi	a5,a5,-84 # 80009050 <reference_count>
    800000ac:	97ba                	add	a5,a5,a4
    800000ae:	4398                	lw	a4,0(a5)
    800000b0:	4785                	li	a5,1
    800000b2:	06e7c363          	blt	a5,a4,80000118 <kfree+0xac>
      //printf("kfree,pa = %p,rc = %d\n",(uint64)pa,reference_count[idx_rc((uint64)pa)]);
      sub_rc((uint64)pa);
      return;
  }
  // Fill with junk to catch dangling refs.
  memset(pa, 1, PGSIZE);
    800000b6:	6605                	lui	a2,0x1
    800000b8:	4585                	li	a1,1
    800000ba:	00000097          	auipc	ra,0x0
    800000be:	190080e7          	jalr	400(ra) # 8000024a <memset>

  r = (struct run*)pa;

  acquire(&kmem.lock);
    800000c2:	00009997          	auipc	s3,0x9
    800000c6:	f6e98993          	addi	s3,s3,-146 # 80009030 <kmem>
    800000ca:	854e                	mv	a0,s3
    800000cc:	00006097          	auipc	ra,0x6
    800000d0:	1c6080e7          	jalr	454(ra) # 80006292 <acquire>
  r->next = kmem.freelist;
    800000d4:	0189b783          	ld	a5,24(s3)
    800000d8:	00f93023          	sd	a5,0(s2)
  kmem.freelist = r;
    800000dc:	0129bc23          	sd	s2,24(s3)
  release(&kmem.lock);
    800000e0:	854e                	mv	a0,s3
    800000e2:	00006097          	auipc	ra,0x6
    800000e6:	264080e7          	jalr	612(ra) # 80006346 <release>
  reference_count[idx_rc((uint64)pa)] = 0;
    800000ea:	048a                	slli	s1,s1,0x2
    800000ec:	00009797          	auipc	a5,0x9
    800000f0:	f6478793          	addi	a5,a5,-156 # 80009050 <reference_count>
    800000f4:	94be                	add	s1,s1,a5
    800000f6:	0004a023          	sw	zero,0(s1) # ffffffff80000000 <end+0xfffffffefffb9dc0>
}
    800000fa:	70a2                	ld	ra,40(sp)
    800000fc:	7402                	ld	s0,32(sp)
    800000fe:	64e2                	ld	s1,24(sp)
    80000100:	6942                	ld	s2,16(sp)
    80000102:	69a2                	ld	s3,8(sp)
    80000104:	6145                	addi	sp,sp,48
    80000106:	8082                	ret
    panic("kfree");
    80000108:	00008517          	auipc	a0,0x8
    8000010c:	f0850513          	addi	a0,a0,-248 # 80008010 <etext+0x10>
    80000110:	00006097          	auipc	ra,0x6
    80000114:	c38080e7          	jalr	-968(ra) # 80005d48 <panic>
      sub_rc((uint64)pa);
    80000118:	00000097          	auipc	ra,0x0
    8000011c:	f2c080e7          	jalr	-212(ra) # 80000044 <sub_rc>
      return;
    80000120:	bfe9                	j	800000fa <kfree+0x8e>

0000000080000122 <freerange>:
{
    80000122:	7179                	addi	sp,sp,-48
    80000124:	f406                	sd	ra,40(sp)
    80000126:	f022                	sd	s0,32(sp)
    80000128:	ec26                	sd	s1,24(sp)
    8000012a:	e84a                	sd	s2,16(sp)
    8000012c:	e44e                	sd	s3,8(sp)
    8000012e:	e052                	sd	s4,0(sp)
    80000130:	1800                	addi	s0,sp,48
  p = (char*)PGROUNDUP((uint64)pa_start);
    80000132:	6785                	lui	a5,0x1
    80000134:	fff78493          	addi	s1,a5,-1 # fff <_entry-0x7ffff001>
    80000138:	94aa                	add	s1,s1,a0
    8000013a:	757d                	lui	a0,0xfffff
    8000013c:	8ce9                	and	s1,s1,a0
  for(; p + PGSIZE <= (char*)pa_end; p += PGSIZE)
    8000013e:	94be                	add	s1,s1,a5
    80000140:	0095ee63          	bltu	a1,s1,8000015c <freerange+0x3a>
    80000144:	892e                	mv	s2,a1
    kfree(p);
    80000146:	7a7d                	lui	s4,0xfffff
  for(; p + PGSIZE <= (char*)pa_end; p += PGSIZE)
    80000148:	6985                	lui	s3,0x1
    kfree(p);
    8000014a:	01448533          	add	a0,s1,s4
    8000014e:	00000097          	auipc	ra,0x0
    80000152:	f1e080e7          	jalr	-226(ra) # 8000006c <kfree>
  for(; p + PGSIZE <= (char*)pa_end; p += PGSIZE)
    80000156:	94ce                	add	s1,s1,s3
    80000158:	fe9979e3          	bgeu	s2,s1,8000014a <freerange+0x28>
}
    8000015c:	70a2                	ld	ra,40(sp)
    8000015e:	7402                	ld	s0,32(sp)
    80000160:	64e2                	ld	s1,24(sp)
    80000162:	6942                	ld	s2,16(sp)
    80000164:	69a2                	ld	s3,8(sp)
    80000166:	6a02                	ld	s4,0(sp)
    80000168:	6145                	addi	sp,sp,48
    8000016a:	8082                	ret

000000008000016c <kinit>:
{
    8000016c:	1141                	addi	sp,sp,-16
    8000016e:	e406                	sd	ra,8(sp)
    80000170:	e022                	sd	s0,0(sp)
    80000172:	0800                	addi	s0,sp,16
    printf("idx max = %d",(PHYSTOP - 0X80000000) / PGSIZE);
    80000174:	65a1                	lui	a1,0x8
    80000176:	00008517          	auipc	a0,0x8
    8000017a:	ea250513          	addi	a0,a0,-350 # 80008018 <etext+0x18>
    8000017e:	00006097          	auipc	ra,0x6
    80000182:	c14080e7          	jalr	-1004(ra) # 80005d92 <printf>
  initlock(&kmem.lock, "kmem");
    80000186:	00008597          	auipc	a1,0x8
    8000018a:	ea258593          	addi	a1,a1,-350 # 80008028 <etext+0x28>
    8000018e:	00009517          	auipc	a0,0x9
    80000192:	ea250513          	addi	a0,a0,-350 # 80009030 <kmem>
    80000196:	00006097          	auipc	ra,0x6
    8000019a:	06c080e7          	jalr	108(ra) # 80006202 <initlock>
  memset(reference_count,0,sizeof(reference_count));
    8000019e:	00020637          	lui	a2,0x20
    800001a2:	4581                	li	a1,0
    800001a4:	00009517          	auipc	a0,0x9
    800001a8:	eac50513          	addi	a0,a0,-340 # 80009050 <reference_count>
    800001ac:	00000097          	auipc	ra,0x0
    800001b0:	09e080e7          	jalr	158(ra) # 8000024a <memset>
  freerange(end, (void*)PHYSTOP);
    800001b4:	45c5                	li	a1,17
    800001b6:	05ee                	slli	a1,a1,0x1b
    800001b8:	00046517          	auipc	a0,0x46
    800001bc:	08850513          	addi	a0,a0,136 # 80046240 <end>
    800001c0:	00000097          	auipc	ra,0x0
    800001c4:	f62080e7          	jalr	-158(ra) # 80000122 <freerange>
}
    800001c8:	60a2                	ld	ra,8(sp)
    800001ca:	6402                	ld	s0,0(sp)
    800001cc:	0141                	addi	sp,sp,16
    800001ce:	8082                	ret

00000000800001d0 <kalloc>:
// Allocate one 4096-byte page of physical memory.
// Returns a pointer that the kernel can use.
// Returns 0 if the memory cannot be allocated.
void *
kalloc(void)
{
    800001d0:	1101                	addi	sp,sp,-32
    800001d2:	ec06                	sd	ra,24(sp)
    800001d4:	e822                	sd	s0,16(sp)
    800001d6:	e426                	sd	s1,8(sp)
    800001d8:	1000                	addi	s0,sp,32
  struct run *r;

  acquire(&kmem.lock);
    800001da:	00009497          	auipc	s1,0x9
    800001de:	e5648493          	addi	s1,s1,-426 # 80009030 <kmem>
    800001e2:	8526                	mv	a0,s1
    800001e4:	00006097          	auipc	ra,0x6
    800001e8:	0ae080e7          	jalr	174(ra) # 80006292 <acquire>
  r = kmem.freelist;
    800001ec:	6c84                	ld	s1,24(s1)
  if(r)
    800001ee:	c4a9                	beqz	s1,80000238 <kalloc+0x68>
    kmem.freelist = r->next;
    800001f0:	609c                	ld	a5,0(s1)
    800001f2:	00009517          	auipc	a0,0x9
    800001f6:	e3e50513          	addi	a0,a0,-450 # 80009030 <kmem>
    800001fa:	ed1c                	sd	a5,24(a0)
  release(&kmem.lock);
    800001fc:	00006097          	auipc	ra,0x6
    80000200:	14a080e7          	jalr	330(ra) # 80006346 <release>

  if(r)
    memset((char*)r, 5, PGSIZE); // fill with junk
    80000204:	6605                	lui	a2,0x1
    80000206:	4595                	li	a1,5
    80000208:	8526                	mv	a0,s1
    8000020a:	00000097          	auipc	ra,0x0
    8000020e:	040080e7          	jalr	64(ra) # 8000024a <memset>
    return (pa - 0x80000000) / PGSIZE;
    80000212:	800007b7          	lui	a5,0x80000
    80000216:	97a6                	add	a5,a5,s1
    80000218:	83b1                	srli	a5,a5,0xc

  //printf("kalloc,pa = %p,idx = %d\n",(uint64)r,idx_rc((uint64)r));
  if(r)
    reference_count[idx_rc((uint64)r)] = 1;
    8000021a:	2781                	sext.w	a5,a5
    8000021c:	078a                	slli	a5,a5,0x2
    8000021e:	00009717          	auipc	a4,0x9
    80000222:	e3270713          	addi	a4,a4,-462 # 80009050 <reference_count>
    80000226:	97ba                	add	a5,a5,a4
    80000228:	4705                	li	a4,1
    8000022a:	c398                	sw	a4,0(a5)
  return (void*)r;
}
    8000022c:	8526                	mv	a0,s1
    8000022e:	60e2                	ld	ra,24(sp)
    80000230:	6442                	ld	s0,16(sp)
    80000232:	64a2                	ld	s1,8(sp)
    80000234:	6105                	addi	sp,sp,32
    80000236:	8082                	ret
  release(&kmem.lock);
    80000238:	00009517          	auipc	a0,0x9
    8000023c:	df850513          	addi	a0,a0,-520 # 80009030 <kmem>
    80000240:	00006097          	auipc	ra,0x6
    80000244:	106080e7          	jalr	262(ra) # 80006346 <release>
  if(r)
    80000248:	b7d5                	j	8000022c <kalloc+0x5c>

000000008000024a <memset>:
#include "types.h"

void*
memset(void *dst, int c, uint n)
{
    8000024a:	1141                	addi	sp,sp,-16
    8000024c:	e422                	sd	s0,8(sp)
    8000024e:	0800                	addi	s0,sp,16
  char *cdst = (char *) dst;
  int i;
  for(i = 0; i < n; i++){
    80000250:	ce09                	beqz	a2,8000026a <memset+0x20>
    80000252:	87aa                	mv	a5,a0
    80000254:	fff6071b          	addiw	a4,a2,-1
    80000258:	1702                	slli	a4,a4,0x20
    8000025a:	9301                	srli	a4,a4,0x20
    8000025c:	0705                	addi	a4,a4,1
    8000025e:	972a                	add	a4,a4,a0
    cdst[i] = c;
    80000260:	00b78023          	sb	a1,0(a5) # ffffffff80000000 <end+0xfffffffefffb9dc0>
  for(i = 0; i < n; i++){
    80000264:	0785                	addi	a5,a5,1
    80000266:	fee79de3          	bne	a5,a4,80000260 <memset+0x16>
  }
  return dst;
}
    8000026a:	6422                	ld	s0,8(sp)
    8000026c:	0141                	addi	sp,sp,16
    8000026e:	8082                	ret

0000000080000270 <memcmp>:

int
memcmp(const void *v1, const void *v2, uint n)
{
    80000270:	1141                	addi	sp,sp,-16
    80000272:	e422                	sd	s0,8(sp)
    80000274:	0800                	addi	s0,sp,16
  const uchar *s1, *s2;

  s1 = v1;
  s2 = v2;
  while(n-- > 0){
    80000276:	ca05                	beqz	a2,800002a6 <memcmp+0x36>
    80000278:	fff6069b          	addiw	a3,a2,-1
    8000027c:	1682                	slli	a3,a3,0x20
    8000027e:	9281                	srli	a3,a3,0x20
    80000280:	0685                	addi	a3,a3,1
    80000282:	96aa                	add	a3,a3,a0
    if(*s1 != *s2)
    80000284:	00054783          	lbu	a5,0(a0)
    80000288:	0005c703          	lbu	a4,0(a1)
    8000028c:	00e79863          	bne	a5,a4,8000029c <memcmp+0x2c>
      return *s1 - *s2;
    s1++, s2++;
    80000290:	0505                	addi	a0,a0,1
    80000292:	0585                	addi	a1,a1,1
  while(n-- > 0){
    80000294:	fed518e3          	bne	a0,a3,80000284 <memcmp+0x14>
  }

  return 0;
    80000298:	4501                	li	a0,0
    8000029a:	a019                	j	800002a0 <memcmp+0x30>
      return *s1 - *s2;
    8000029c:	40e7853b          	subw	a0,a5,a4
}
    800002a0:	6422                	ld	s0,8(sp)
    800002a2:	0141                	addi	sp,sp,16
    800002a4:	8082                	ret
  return 0;
    800002a6:	4501                	li	a0,0
    800002a8:	bfe5                	j	800002a0 <memcmp+0x30>

00000000800002aa <memmove>:

void*
memmove(void *dst, const void *src, uint n)
{
    800002aa:	1141                	addi	sp,sp,-16
    800002ac:	e422                	sd	s0,8(sp)
    800002ae:	0800                	addi	s0,sp,16
  const char *s;
  char *d;

  if(n == 0)
    800002b0:	ca0d                	beqz	a2,800002e2 <memmove+0x38>
    return dst;
  
  s = src;
  d = dst;
  if(s < d && s + n > d){
    800002b2:	00a5f963          	bgeu	a1,a0,800002c4 <memmove+0x1a>
    800002b6:	02061693          	slli	a3,a2,0x20
    800002ba:	9281                	srli	a3,a3,0x20
    800002bc:	00d58733          	add	a4,a1,a3
    800002c0:	02e56463          	bltu	a0,a4,800002e8 <memmove+0x3e>
    s += n;
    d += n;
    while(n-- > 0)
      *--d = *--s;
  } else
    while(n-- > 0)
    800002c4:	fff6079b          	addiw	a5,a2,-1
    800002c8:	1782                	slli	a5,a5,0x20
    800002ca:	9381                	srli	a5,a5,0x20
    800002cc:	0785                	addi	a5,a5,1
    800002ce:	97ae                	add	a5,a5,a1
    800002d0:	872a                	mv	a4,a0
      *d++ = *s++;
    800002d2:	0585                	addi	a1,a1,1
    800002d4:	0705                	addi	a4,a4,1
    800002d6:	fff5c683          	lbu	a3,-1(a1)
    800002da:	fed70fa3          	sb	a3,-1(a4)
    while(n-- > 0)
    800002de:	fef59ae3          	bne	a1,a5,800002d2 <memmove+0x28>

  return dst;
}
    800002e2:	6422                	ld	s0,8(sp)
    800002e4:	0141                	addi	sp,sp,16
    800002e6:	8082                	ret
    d += n;
    800002e8:	96aa                	add	a3,a3,a0
    while(n-- > 0)
    800002ea:	fff6079b          	addiw	a5,a2,-1
    800002ee:	1782                	slli	a5,a5,0x20
    800002f0:	9381                	srli	a5,a5,0x20
    800002f2:	fff7c793          	not	a5,a5
    800002f6:	97ba                	add	a5,a5,a4
      *--d = *--s;
    800002f8:	177d                	addi	a4,a4,-1
    800002fa:	16fd                	addi	a3,a3,-1
    800002fc:	00074603          	lbu	a2,0(a4)
    80000300:	00c68023          	sb	a2,0(a3)
    while(n-- > 0)
    80000304:	fef71ae3          	bne	a4,a5,800002f8 <memmove+0x4e>
    80000308:	bfe9                	j	800002e2 <memmove+0x38>

000000008000030a <memcpy>:

// memcpy exists to placate GCC.  Use memmove.
void*
memcpy(void *dst, const void *src, uint n)
{
    8000030a:	1141                	addi	sp,sp,-16
    8000030c:	e406                	sd	ra,8(sp)
    8000030e:	e022                	sd	s0,0(sp)
    80000310:	0800                	addi	s0,sp,16
  return memmove(dst, src, n);
    80000312:	00000097          	auipc	ra,0x0
    80000316:	f98080e7          	jalr	-104(ra) # 800002aa <memmove>
}
    8000031a:	60a2                	ld	ra,8(sp)
    8000031c:	6402                	ld	s0,0(sp)
    8000031e:	0141                	addi	sp,sp,16
    80000320:	8082                	ret

0000000080000322 <strncmp>:

int
strncmp(const char *p, const char *q, uint n)
{
    80000322:	1141                	addi	sp,sp,-16
    80000324:	e422                	sd	s0,8(sp)
    80000326:	0800                	addi	s0,sp,16
  while(n > 0 && *p && *p == *q)
    80000328:	ce11                	beqz	a2,80000344 <strncmp+0x22>
    8000032a:	00054783          	lbu	a5,0(a0)
    8000032e:	cf89                	beqz	a5,80000348 <strncmp+0x26>
    80000330:	0005c703          	lbu	a4,0(a1)
    80000334:	00f71a63          	bne	a4,a5,80000348 <strncmp+0x26>
    n--, p++, q++;
    80000338:	367d                	addiw	a2,a2,-1
    8000033a:	0505                	addi	a0,a0,1
    8000033c:	0585                	addi	a1,a1,1
  while(n > 0 && *p && *p == *q)
    8000033e:	f675                	bnez	a2,8000032a <strncmp+0x8>
  if(n == 0)
    return 0;
    80000340:	4501                	li	a0,0
    80000342:	a809                	j	80000354 <strncmp+0x32>
    80000344:	4501                	li	a0,0
    80000346:	a039                	j	80000354 <strncmp+0x32>
  if(n == 0)
    80000348:	ca09                	beqz	a2,8000035a <strncmp+0x38>
  return (uchar)*p - (uchar)*q;
    8000034a:	00054503          	lbu	a0,0(a0)
    8000034e:	0005c783          	lbu	a5,0(a1)
    80000352:	9d1d                	subw	a0,a0,a5
}
    80000354:	6422                	ld	s0,8(sp)
    80000356:	0141                	addi	sp,sp,16
    80000358:	8082                	ret
    return 0;
    8000035a:	4501                	li	a0,0
    8000035c:	bfe5                	j	80000354 <strncmp+0x32>

000000008000035e <strncpy>:

char*
strncpy(char *s, const char *t, int n)
{
    8000035e:	1141                	addi	sp,sp,-16
    80000360:	e422                	sd	s0,8(sp)
    80000362:	0800                	addi	s0,sp,16
  char *os;

  os = s;
  while(n-- > 0 && (*s++ = *t++) != 0)
    80000364:	872a                	mv	a4,a0
    80000366:	8832                	mv	a6,a2
    80000368:	367d                	addiw	a2,a2,-1
    8000036a:	01005963          	blez	a6,8000037c <strncpy+0x1e>
    8000036e:	0705                	addi	a4,a4,1
    80000370:	0005c783          	lbu	a5,0(a1)
    80000374:	fef70fa3          	sb	a5,-1(a4)
    80000378:	0585                	addi	a1,a1,1
    8000037a:	f7f5                	bnez	a5,80000366 <strncpy+0x8>
    ;
  while(n-- > 0)
    8000037c:	00c05d63          	blez	a2,80000396 <strncpy+0x38>
    80000380:	86ba                	mv	a3,a4
    *s++ = 0;
    80000382:	0685                	addi	a3,a3,1
    80000384:	fe068fa3          	sb	zero,-1(a3)
  while(n-- > 0)
    80000388:	fff6c793          	not	a5,a3
    8000038c:	9fb9                	addw	a5,a5,a4
    8000038e:	010787bb          	addw	a5,a5,a6
    80000392:	fef048e3          	bgtz	a5,80000382 <strncpy+0x24>
  return os;
}
    80000396:	6422                	ld	s0,8(sp)
    80000398:	0141                	addi	sp,sp,16
    8000039a:	8082                	ret

000000008000039c <safestrcpy>:

// Like strncpy but guaranteed to NUL-terminate.
char*
safestrcpy(char *s, const char *t, int n)
{
    8000039c:	1141                	addi	sp,sp,-16
    8000039e:	e422                	sd	s0,8(sp)
    800003a0:	0800                	addi	s0,sp,16
  char *os;

  os = s;
  if(n <= 0)
    800003a2:	02c05363          	blez	a2,800003c8 <safestrcpy+0x2c>
    800003a6:	fff6069b          	addiw	a3,a2,-1
    800003aa:	1682                	slli	a3,a3,0x20
    800003ac:	9281                	srli	a3,a3,0x20
    800003ae:	96ae                	add	a3,a3,a1
    800003b0:	87aa                	mv	a5,a0
    return os;
  while(--n > 0 && (*s++ = *t++) != 0)
    800003b2:	00d58963          	beq	a1,a3,800003c4 <safestrcpy+0x28>
    800003b6:	0585                	addi	a1,a1,1
    800003b8:	0785                	addi	a5,a5,1
    800003ba:	fff5c703          	lbu	a4,-1(a1)
    800003be:	fee78fa3          	sb	a4,-1(a5)
    800003c2:	fb65                	bnez	a4,800003b2 <safestrcpy+0x16>
    ;
  *s = 0;
    800003c4:	00078023          	sb	zero,0(a5)
  return os;
}
    800003c8:	6422                	ld	s0,8(sp)
    800003ca:	0141                	addi	sp,sp,16
    800003cc:	8082                	ret

00000000800003ce <strlen>:

int
strlen(const char *s)
{
    800003ce:	1141                	addi	sp,sp,-16
    800003d0:	e422                	sd	s0,8(sp)
    800003d2:	0800                	addi	s0,sp,16
  int n;

  for(n = 0; s[n]; n++)
    800003d4:	00054783          	lbu	a5,0(a0)
    800003d8:	cf91                	beqz	a5,800003f4 <strlen+0x26>
    800003da:	0505                	addi	a0,a0,1
    800003dc:	87aa                	mv	a5,a0
    800003de:	4685                	li	a3,1
    800003e0:	9e89                	subw	a3,a3,a0
    800003e2:	00f6853b          	addw	a0,a3,a5
    800003e6:	0785                	addi	a5,a5,1
    800003e8:	fff7c703          	lbu	a4,-1(a5)
    800003ec:	fb7d                	bnez	a4,800003e2 <strlen+0x14>
    ;
  return n;
}
    800003ee:	6422                	ld	s0,8(sp)
    800003f0:	0141                	addi	sp,sp,16
    800003f2:	8082                	ret
  for(n = 0; s[n]; n++)
    800003f4:	4501                	li	a0,0
    800003f6:	bfe5                	j	800003ee <strlen+0x20>

00000000800003f8 <main>:
volatile static int started = 0;

// start() jumps here in supervisor mode on all CPUs.
void
main()
{
    800003f8:	1141                	addi	sp,sp,-16
    800003fa:	e406                	sd	ra,8(sp)
    800003fc:	e022                	sd	s0,0(sp)
    800003fe:	0800                	addi	s0,sp,16
  if(cpuid() == 0){
    80000400:	00001097          	auipc	ra,0x1
    80000404:	b78080e7          	jalr	-1160(ra) # 80000f78 <cpuid>
    virtio_disk_init(); // emulated hard disk
    userinit();      // first user process
    __sync_synchronize();
    started = 1;
  } else {
    while(started == 0)
    80000408:	00009717          	auipc	a4,0x9
    8000040c:	bf870713          	addi	a4,a4,-1032 # 80009000 <started>
  if(cpuid() == 0){
    80000410:	c139                	beqz	a0,80000456 <main+0x5e>
    while(started == 0)
    80000412:	431c                	lw	a5,0(a4)
    80000414:	2781                	sext.w	a5,a5
    80000416:	dff5                	beqz	a5,80000412 <main+0x1a>
      ;
    __sync_synchronize();
    80000418:	0ff0000f          	fence
    printf("hart %d starting\n", cpuid());
    8000041c:	00001097          	auipc	ra,0x1
    80000420:	b5c080e7          	jalr	-1188(ra) # 80000f78 <cpuid>
    80000424:	85aa                	mv	a1,a0
    80000426:	00008517          	auipc	a0,0x8
    8000042a:	c2250513          	addi	a0,a0,-990 # 80008048 <etext+0x48>
    8000042e:	00006097          	auipc	ra,0x6
    80000432:	964080e7          	jalr	-1692(ra) # 80005d92 <printf>
    kvminithart();    // turn on paging
    80000436:	00000097          	auipc	ra,0x0
    8000043a:	0d8080e7          	jalr	216(ra) # 8000050e <kvminithart>
    trapinithart();   // install kernel trap vector
    8000043e:	00001097          	auipc	ra,0x1
    80000442:	7b2080e7          	jalr	1970(ra) # 80001bf0 <trapinithart>
    plicinithart();   // ask PLIC for device interrupts
    80000446:	00005097          	auipc	ra,0x5
    8000044a:	dda080e7          	jalr	-550(ra) # 80005220 <plicinithart>
  }

  scheduler();        
    8000044e:	00001097          	auipc	ra,0x1
    80000452:	060080e7          	jalr	96(ra) # 800014ae <scheduler>
    consoleinit();
    80000456:	00006097          	auipc	ra,0x6
    8000045a:	804080e7          	jalr	-2044(ra) # 80005c5a <consoleinit>
    printfinit();
    8000045e:	00006097          	auipc	ra,0x6
    80000462:	b1a080e7          	jalr	-1254(ra) # 80005f78 <printfinit>
    printf("\n");
    80000466:	00008517          	auipc	a0,0x8
    8000046a:	bf250513          	addi	a0,a0,-1038 # 80008058 <etext+0x58>
    8000046e:	00006097          	auipc	ra,0x6
    80000472:	924080e7          	jalr	-1756(ra) # 80005d92 <printf>
    printf("xv6 kernel is booting\n");
    80000476:	00008517          	auipc	a0,0x8
    8000047a:	bba50513          	addi	a0,a0,-1094 # 80008030 <etext+0x30>
    8000047e:	00006097          	auipc	ra,0x6
    80000482:	914080e7          	jalr	-1772(ra) # 80005d92 <printf>
    printf("\n");
    80000486:	00008517          	auipc	a0,0x8
    8000048a:	bd250513          	addi	a0,a0,-1070 # 80008058 <etext+0x58>
    8000048e:	00006097          	auipc	ra,0x6
    80000492:	904080e7          	jalr	-1788(ra) # 80005d92 <printf>
    kinit();         // physical page allocator
    80000496:	00000097          	auipc	ra,0x0
    8000049a:	cd6080e7          	jalr	-810(ra) # 8000016c <kinit>
    kvminit();       // create kernel page table
    8000049e:	00000097          	auipc	ra,0x0
    800004a2:	344080e7          	jalr	836(ra) # 800007e2 <kvminit>
    kvminithart();   // turn on paging
    800004a6:	00000097          	auipc	ra,0x0
    800004aa:	068080e7          	jalr	104(ra) # 8000050e <kvminithart>
    procinit();      // process table
    800004ae:	00001097          	auipc	ra,0x1
    800004b2:	a1a080e7          	jalr	-1510(ra) # 80000ec8 <procinit>
    trapinit();      // trap vectors
    800004b6:	00001097          	auipc	ra,0x1
    800004ba:	712080e7          	jalr	1810(ra) # 80001bc8 <trapinit>
    trapinithart();  // install kernel trap vector
    800004be:	00001097          	auipc	ra,0x1
    800004c2:	732080e7          	jalr	1842(ra) # 80001bf0 <trapinithart>
    plicinit();      // set up interrupt controller
    800004c6:	00005097          	auipc	ra,0x5
    800004ca:	d44080e7          	jalr	-700(ra) # 8000520a <plicinit>
    plicinithart();  // ask PLIC for device interrupts
    800004ce:	00005097          	auipc	ra,0x5
    800004d2:	d52080e7          	jalr	-686(ra) # 80005220 <plicinithart>
    binit();         // buffer cache
    800004d6:	00002097          	auipc	ra,0x2
    800004da:	f30080e7          	jalr	-208(ra) # 80002406 <binit>
    iinit();         // inode table
    800004de:	00002097          	auipc	ra,0x2
    800004e2:	5c0080e7          	jalr	1472(ra) # 80002a9e <iinit>
    fileinit();      // file table
    800004e6:	00003097          	auipc	ra,0x3
    800004ea:	56a080e7          	jalr	1386(ra) # 80003a50 <fileinit>
    virtio_disk_init(); // emulated hard disk
    800004ee:	00005097          	auipc	ra,0x5
    800004f2:	e54080e7          	jalr	-428(ra) # 80005342 <virtio_disk_init>
    userinit();      // first user process
    800004f6:	00001097          	auipc	ra,0x1
    800004fa:	d86080e7          	jalr	-634(ra) # 8000127c <userinit>
    __sync_synchronize();
    800004fe:	0ff0000f          	fence
    started = 1;
    80000502:	4785                	li	a5,1
    80000504:	00009717          	auipc	a4,0x9
    80000508:	aef72e23          	sw	a5,-1284(a4) # 80009000 <started>
    8000050c:	b789                	j	8000044e <main+0x56>

000000008000050e <kvminithart>:

// Switch h/w page table register to the kernel's page table,
// and enable paging.
void
kvminithart()
{
    8000050e:	1141                	addi	sp,sp,-16
    80000510:	e422                	sd	s0,8(sp)
    80000512:	0800                	addi	s0,sp,16
  w_satp(MAKE_SATP(kernel_pagetable));
    80000514:	00009797          	auipc	a5,0x9
    80000518:	af47b783          	ld	a5,-1292(a5) # 80009008 <kernel_pagetable>
    8000051c:	83b1                	srli	a5,a5,0xc
    8000051e:	577d                	li	a4,-1
    80000520:	177e                	slli	a4,a4,0x3f
    80000522:	8fd9                	or	a5,a5,a4
// supervisor address translation and protection;
// holds the address of the page table.
static inline void 
w_satp(uint64 x)
{
  asm volatile("csrw satp, %0" : : "r" (x));
    80000524:	18079073          	csrw	satp,a5
// flush the TLB.
static inline void
sfence_vma()
{
  // the zero, zero means flush all TLB entries.
  asm volatile("sfence.vma zero, zero");
    80000528:	12000073          	sfence.vma
  sfence_vma();
}
    8000052c:	6422                	ld	s0,8(sp)
    8000052e:	0141                	addi	sp,sp,16
    80000530:	8082                	ret

0000000080000532 <walk>:
//   21..29 -- 9 bits of level-1 index.
//   12..20 -- 9 bits of level-0 index.
//    0..11 -- 12 bits of byte offset within the page.
pte_t *
walk(pagetable_t pagetable, uint64 va, int alloc)
{
    80000532:	7139                	addi	sp,sp,-64
    80000534:	fc06                	sd	ra,56(sp)
    80000536:	f822                	sd	s0,48(sp)
    80000538:	f426                	sd	s1,40(sp)
    8000053a:	f04a                	sd	s2,32(sp)
    8000053c:	ec4e                	sd	s3,24(sp)
    8000053e:	e852                	sd	s4,16(sp)
    80000540:	e456                	sd	s5,8(sp)
    80000542:	e05a                	sd	s6,0(sp)
    80000544:	0080                	addi	s0,sp,64
    80000546:	84aa                	mv	s1,a0
    80000548:	89ae                	mv	s3,a1
    8000054a:	8ab2                	mv	s5,a2
  if(va >= MAXVA){
    8000054c:	57fd                	li	a5,-1
    8000054e:	83e9                	srli	a5,a5,0x1a
    80000550:	4a79                	li	s4,30
    panic("walk");
  }

  for(int level = 2; level > 0; level--) {
    80000552:	4b31                	li	s6,12
  if(va >= MAXVA){
    80000554:	04b7f263          	bgeu	a5,a1,80000598 <walk+0x66>
    panic("walk");
    80000558:	00008517          	auipc	a0,0x8
    8000055c:	b0850513          	addi	a0,a0,-1272 # 80008060 <etext+0x60>
    80000560:	00005097          	auipc	ra,0x5
    80000564:	7e8080e7          	jalr	2024(ra) # 80005d48 <panic>
    pte_t *pte = &pagetable[PX(level, va)];
    if(*pte & PTE_V) {
      pagetable = (pagetable_t)PTE2PA(*pte);
    } else {
      if(!alloc || (pagetable = (pde_t*)kalloc()) == 0)
    80000568:	060a8663          	beqz	s5,800005d4 <walk+0xa2>
    8000056c:	00000097          	auipc	ra,0x0
    80000570:	c64080e7          	jalr	-924(ra) # 800001d0 <kalloc>
    80000574:	84aa                	mv	s1,a0
    80000576:	c529                	beqz	a0,800005c0 <walk+0x8e>
        return 0;
      memset(pagetable, 0, PGSIZE);
    80000578:	6605                	lui	a2,0x1
    8000057a:	4581                	li	a1,0
    8000057c:	00000097          	auipc	ra,0x0
    80000580:	cce080e7          	jalr	-818(ra) # 8000024a <memset>
      *pte = PA2PTE(pagetable) | PTE_V;
    80000584:	00c4d793          	srli	a5,s1,0xc
    80000588:	07aa                	slli	a5,a5,0xa
    8000058a:	0017e793          	ori	a5,a5,1
    8000058e:	00f93023          	sd	a5,0(s2)
  for(int level = 2; level > 0; level--) {
    80000592:	3a5d                	addiw	s4,s4,-9
    80000594:	036a0063          	beq	s4,s6,800005b4 <walk+0x82>
    pte_t *pte = &pagetable[PX(level, va)];
    80000598:	0149d933          	srl	s2,s3,s4
    8000059c:	1ff97913          	andi	s2,s2,511
    800005a0:	090e                	slli	s2,s2,0x3
    800005a2:	9926                	add	s2,s2,s1
    if(*pte & PTE_V) {
    800005a4:	00093483          	ld	s1,0(s2)
    800005a8:	0014f793          	andi	a5,s1,1
    800005ac:	dfd5                	beqz	a5,80000568 <walk+0x36>
      pagetable = (pagetable_t)PTE2PA(*pte);
    800005ae:	80a9                	srli	s1,s1,0xa
    800005b0:	04b2                	slli	s1,s1,0xc
    800005b2:	b7c5                	j	80000592 <walk+0x60>
    }
  }
  return &pagetable[PX(0, va)];
    800005b4:	00c9d513          	srli	a0,s3,0xc
    800005b8:	1ff57513          	andi	a0,a0,511
    800005bc:	050e                	slli	a0,a0,0x3
    800005be:	9526                	add	a0,a0,s1
}
    800005c0:	70e2                	ld	ra,56(sp)
    800005c2:	7442                	ld	s0,48(sp)
    800005c4:	74a2                	ld	s1,40(sp)
    800005c6:	7902                	ld	s2,32(sp)
    800005c8:	69e2                	ld	s3,24(sp)
    800005ca:	6a42                	ld	s4,16(sp)
    800005cc:	6aa2                	ld	s5,8(sp)
    800005ce:	6b02                	ld	s6,0(sp)
    800005d0:	6121                	addi	sp,sp,64
    800005d2:	8082                	ret
        return 0;
    800005d4:	4501                	li	a0,0
    800005d6:	b7ed                	j	800005c0 <walk+0x8e>

00000000800005d8 <walkaddr>:
walkaddr(pagetable_t pagetable, uint64 va)
{
  pte_t *pte;
  uint64 pa;

  if(va >= MAXVA)
    800005d8:	57fd                	li	a5,-1
    800005da:	83e9                	srli	a5,a5,0x1a
    800005dc:	00b7f463          	bgeu	a5,a1,800005e4 <walkaddr+0xc>
    return 0;
    800005e0:	4501                	li	a0,0
    return 0;
  if((*pte & PTE_U) == 0)
    return 0;
  pa = PTE2PA(*pte);
  return pa;
}
    800005e2:	8082                	ret
{
    800005e4:	1141                	addi	sp,sp,-16
    800005e6:	e406                	sd	ra,8(sp)
    800005e8:	e022                	sd	s0,0(sp)
    800005ea:	0800                	addi	s0,sp,16
  pte = walk(pagetable, va, 0);
    800005ec:	4601                	li	a2,0
    800005ee:	00000097          	auipc	ra,0x0
    800005f2:	f44080e7          	jalr	-188(ra) # 80000532 <walk>
  if(pte == 0)
    800005f6:	c105                	beqz	a0,80000616 <walkaddr+0x3e>
  if((*pte & PTE_V) == 0)
    800005f8:	611c                	ld	a5,0(a0)
  if((*pte & PTE_U) == 0)
    800005fa:	0117f693          	andi	a3,a5,17
    800005fe:	4745                	li	a4,17
    return 0;
    80000600:	4501                	li	a0,0
  if((*pte & PTE_U) == 0)
    80000602:	00e68663          	beq	a3,a4,8000060e <walkaddr+0x36>
}
    80000606:	60a2                	ld	ra,8(sp)
    80000608:	6402                	ld	s0,0(sp)
    8000060a:	0141                	addi	sp,sp,16
    8000060c:	8082                	ret
  pa = PTE2PA(*pte);
    8000060e:	00a7d513          	srli	a0,a5,0xa
    80000612:	0532                	slli	a0,a0,0xc
  return pa;
    80000614:	bfcd                	j	80000606 <walkaddr+0x2e>
    return 0;
    80000616:	4501                	li	a0,0
    80000618:	b7fd                	j	80000606 <walkaddr+0x2e>

000000008000061a <mappages>:
// physical addresses starting at pa. va and size might not
// be page-aligned. Returns 0 on success, -1 if walk() couldn't
// allocate a needed page-table page.
int
mappages(pagetable_t pagetable, uint64 va, uint64 size, uint64 pa, int perm)
{
    8000061a:	715d                	addi	sp,sp,-80
    8000061c:	e486                	sd	ra,72(sp)
    8000061e:	e0a2                	sd	s0,64(sp)
    80000620:	fc26                	sd	s1,56(sp)
    80000622:	f84a                	sd	s2,48(sp)
    80000624:	f44e                	sd	s3,40(sp)
    80000626:	f052                	sd	s4,32(sp)
    80000628:	ec56                	sd	s5,24(sp)
    8000062a:	e85a                	sd	s6,16(sp)
    8000062c:	e45e                	sd	s7,8(sp)
    8000062e:	e062                	sd	s8,0(sp)
    80000630:	0880                	addi	s0,sp,80
  uint64 a, last;
  pte_t *pte;

  if(size == 0)
    80000632:	c20d                	beqz	a2,80000654 <mappages+0x3a>
    80000634:	8aaa                	mv	s5,a0
    80000636:	8c2e                	mv	s8,a1
    80000638:	8b3a                	mv	s6,a4
    panic("mappages: size");
  
  a = PGROUNDDOWN(va);
    8000063a:	77fd                	lui	a5,0xfffff
    8000063c:	00f5f9b3          	and	s3,a1,a5
  last = PGROUNDDOWN(va + size - 1);
    80000640:	fff58a13          	addi	s4,a1,-1
    80000644:	9652                	add	a2,a2,s4
    80000646:	00f67a33          	and	s4,a2,a5
  a = PGROUNDDOWN(va);
    8000064a:	894e                	mv	s2,s3
    8000064c:	413689b3          	sub	s3,a3,s3
      panic("mappages: remap");
    }
    *pte = PA2PTE(pa) | perm | PTE_V;
    if(a == last)
      break;
    a += PGSIZE;
    80000650:	6b85                	lui	s7,0x1
    80000652:	a83d                	j	80000690 <mappages+0x76>
    panic("mappages: size");
    80000654:	00008517          	auipc	a0,0x8
    80000658:	a1450513          	addi	a0,a0,-1516 # 80008068 <etext+0x68>
    8000065c:	00005097          	auipc	ra,0x5
    80000660:	6ec080e7          	jalr	1772(ra) # 80005d48 <panic>
        printf("va = %p,pa = %p,oripa = %p\n",va,pa,PTE2PA(*pte));
    80000664:	83a9                	srli	a5,a5,0xa
    80000666:	00c79693          	slli	a3,a5,0xc
    8000066a:	8626                	mv	a2,s1
    8000066c:	85e2                	mv	a1,s8
    8000066e:	00008517          	auipc	a0,0x8
    80000672:	a0a50513          	addi	a0,a0,-1526 # 80008078 <etext+0x78>
    80000676:	00005097          	auipc	ra,0x5
    8000067a:	71c080e7          	jalr	1820(ra) # 80005d92 <printf>
      panic("mappages: remap");
    8000067e:	00008517          	auipc	a0,0x8
    80000682:	a1a50513          	addi	a0,a0,-1510 # 80008098 <etext+0x98>
    80000686:	00005097          	auipc	ra,0x5
    8000068a:	6c2080e7          	jalr	1730(ra) # 80005d48 <panic>
    a += PGSIZE;
    8000068e:	995e                	add	s2,s2,s7
  for(;;){
    80000690:	012984b3          	add	s1,s3,s2
    if((pte = walk(pagetable, a, 1)) == 0)
    80000694:	4605                	li	a2,1
    80000696:	85ca                	mv	a1,s2
    80000698:	8556                	mv	a0,s5
    8000069a:	00000097          	auipc	ra,0x0
    8000069e:	e98080e7          	jalr	-360(ra) # 80000532 <walk>
    800006a2:	c105                	beqz	a0,800006c2 <mappages+0xa8>
    if(*pte & PTE_V){
    800006a4:	611c                	ld	a5,0(a0)
    800006a6:	0017f713          	andi	a4,a5,1
    800006aa:	ff4d                	bnez	a4,80000664 <mappages+0x4a>
    *pte = PA2PTE(pa) | perm | PTE_V;
    800006ac:	80b1                	srli	s1,s1,0xc
    800006ae:	04aa                	slli	s1,s1,0xa
    800006b0:	0164e4b3          	or	s1,s1,s6
    800006b4:	0014e493          	ori	s1,s1,1
    800006b8:	e104                	sd	s1,0(a0)
    if(a == last)
    800006ba:	fd491ae3          	bne	s2,s4,8000068e <mappages+0x74>
    pa += PGSIZE;
  }
  return 0;
    800006be:	4501                	li	a0,0
    800006c0:	a011                	j	800006c4 <mappages+0xaa>
      return -1;
    800006c2:	557d                	li	a0,-1
}
    800006c4:	60a6                	ld	ra,72(sp)
    800006c6:	6406                	ld	s0,64(sp)
    800006c8:	74e2                	ld	s1,56(sp)
    800006ca:	7942                	ld	s2,48(sp)
    800006cc:	79a2                	ld	s3,40(sp)
    800006ce:	7a02                	ld	s4,32(sp)
    800006d0:	6ae2                	ld	s5,24(sp)
    800006d2:	6b42                	ld	s6,16(sp)
    800006d4:	6ba2                	ld	s7,8(sp)
    800006d6:	6c02                	ld	s8,0(sp)
    800006d8:	6161                	addi	sp,sp,80
    800006da:	8082                	ret

00000000800006dc <kvmmap>:
{
    800006dc:	1141                	addi	sp,sp,-16
    800006de:	e406                	sd	ra,8(sp)
    800006e0:	e022                	sd	s0,0(sp)
    800006e2:	0800                	addi	s0,sp,16
    800006e4:	87b6                	mv	a5,a3
  if(mappages(kpgtbl, va, sz, pa, perm) != 0)
    800006e6:	86b2                	mv	a3,a2
    800006e8:	863e                	mv	a2,a5
    800006ea:	00000097          	auipc	ra,0x0
    800006ee:	f30080e7          	jalr	-208(ra) # 8000061a <mappages>
    800006f2:	e509                	bnez	a0,800006fc <kvmmap+0x20>
}
    800006f4:	60a2                	ld	ra,8(sp)
    800006f6:	6402                	ld	s0,0(sp)
    800006f8:	0141                	addi	sp,sp,16
    800006fa:	8082                	ret
    panic("kvmmap");
    800006fc:	00008517          	auipc	a0,0x8
    80000700:	9ac50513          	addi	a0,a0,-1620 # 800080a8 <etext+0xa8>
    80000704:	00005097          	auipc	ra,0x5
    80000708:	644080e7          	jalr	1604(ra) # 80005d48 <panic>

000000008000070c <kvmmake>:
{
    8000070c:	1101                	addi	sp,sp,-32
    8000070e:	ec06                	sd	ra,24(sp)
    80000710:	e822                	sd	s0,16(sp)
    80000712:	e426                	sd	s1,8(sp)
    80000714:	e04a                	sd	s2,0(sp)
    80000716:	1000                	addi	s0,sp,32
  kpgtbl = (pagetable_t) kalloc();
    80000718:	00000097          	auipc	ra,0x0
    8000071c:	ab8080e7          	jalr	-1352(ra) # 800001d0 <kalloc>
    80000720:	84aa                	mv	s1,a0
  memset(kpgtbl, 0, PGSIZE);
    80000722:	6605                	lui	a2,0x1
    80000724:	4581                	li	a1,0
    80000726:	00000097          	auipc	ra,0x0
    8000072a:	b24080e7          	jalr	-1244(ra) # 8000024a <memset>
  kvmmap(kpgtbl, UART0, UART0, PGSIZE, PTE_R | PTE_W);
    8000072e:	4719                	li	a4,6
    80000730:	6685                	lui	a3,0x1
    80000732:	10000637          	lui	a2,0x10000
    80000736:	100005b7          	lui	a1,0x10000
    8000073a:	8526                	mv	a0,s1
    8000073c:	00000097          	auipc	ra,0x0
    80000740:	fa0080e7          	jalr	-96(ra) # 800006dc <kvmmap>
  kvmmap(kpgtbl, VIRTIO0, VIRTIO0, PGSIZE, PTE_R | PTE_W);
    80000744:	4719                	li	a4,6
    80000746:	6685                	lui	a3,0x1
    80000748:	10001637          	lui	a2,0x10001
    8000074c:	100015b7          	lui	a1,0x10001
    80000750:	8526                	mv	a0,s1
    80000752:	00000097          	auipc	ra,0x0
    80000756:	f8a080e7          	jalr	-118(ra) # 800006dc <kvmmap>
  kvmmap(kpgtbl, PLIC, PLIC, 0x400000, PTE_R | PTE_W);
    8000075a:	4719                	li	a4,6
    8000075c:	004006b7          	lui	a3,0x400
    80000760:	0c000637          	lui	a2,0xc000
    80000764:	0c0005b7          	lui	a1,0xc000
    80000768:	8526                	mv	a0,s1
    8000076a:	00000097          	auipc	ra,0x0
    8000076e:	f72080e7          	jalr	-142(ra) # 800006dc <kvmmap>
  kvmmap(kpgtbl, KERNBASE, KERNBASE, (uint64)etext-KERNBASE, PTE_R | PTE_X);
    80000772:	00008917          	auipc	s2,0x8
    80000776:	88e90913          	addi	s2,s2,-1906 # 80008000 <etext>
    8000077a:	4729                	li	a4,10
    8000077c:	80008697          	auipc	a3,0x80008
    80000780:	88468693          	addi	a3,a3,-1916 # 8000 <_entry-0x7fff8000>
    80000784:	4605                	li	a2,1
    80000786:	067e                	slli	a2,a2,0x1f
    80000788:	85b2                	mv	a1,a2
    8000078a:	8526                	mv	a0,s1
    8000078c:	00000097          	auipc	ra,0x0
    80000790:	f50080e7          	jalr	-176(ra) # 800006dc <kvmmap>
  kvmmap(kpgtbl, (uint64)etext, (uint64)etext, PHYSTOP-(uint64)etext, PTE_R | PTE_W);
    80000794:	4719                	li	a4,6
    80000796:	46c5                	li	a3,17
    80000798:	06ee                	slli	a3,a3,0x1b
    8000079a:	412686b3          	sub	a3,a3,s2
    8000079e:	864a                	mv	a2,s2
    800007a0:	85ca                	mv	a1,s2
    800007a2:	8526                	mv	a0,s1
    800007a4:	00000097          	auipc	ra,0x0
    800007a8:	f38080e7          	jalr	-200(ra) # 800006dc <kvmmap>
  kvmmap(kpgtbl, TRAMPOLINE, (uint64)trampoline, PGSIZE, PTE_R | PTE_X);
    800007ac:	4729                	li	a4,10
    800007ae:	6685                	lui	a3,0x1
    800007b0:	00007617          	auipc	a2,0x7
    800007b4:	85060613          	addi	a2,a2,-1968 # 80007000 <_trampoline>
    800007b8:	040005b7          	lui	a1,0x4000
    800007bc:	15fd                	addi	a1,a1,-1
    800007be:	05b2                	slli	a1,a1,0xc
    800007c0:	8526                	mv	a0,s1
    800007c2:	00000097          	auipc	ra,0x0
    800007c6:	f1a080e7          	jalr	-230(ra) # 800006dc <kvmmap>
  proc_mapstacks(kpgtbl);
    800007ca:	8526                	mv	a0,s1
    800007cc:	00000097          	auipc	ra,0x0
    800007d0:	666080e7          	jalr	1638(ra) # 80000e32 <proc_mapstacks>
}
    800007d4:	8526                	mv	a0,s1
    800007d6:	60e2                	ld	ra,24(sp)
    800007d8:	6442                	ld	s0,16(sp)
    800007da:	64a2                	ld	s1,8(sp)
    800007dc:	6902                	ld	s2,0(sp)
    800007de:	6105                	addi	sp,sp,32
    800007e0:	8082                	ret

00000000800007e2 <kvminit>:
{
    800007e2:	1141                	addi	sp,sp,-16
    800007e4:	e406                	sd	ra,8(sp)
    800007e6:	e022                	sd	s0,0(sp)
    800007e8:	0800                	addi	s0,sp,16
  kernel_pagetable = kvmmake();
    800007ea:	00000097          	auipc	ra,0x0
    800007ee:	f22080e7          	jalr	-222(ra) # 8000070c <kvmmake>
    800007f2:	00009797          	auipc	a5,0x9
    800007f6:	80a7bb23          	sd	a0,-2026(a5) # 80009008 <kernel_pagetable>
}
    800007fa:	60a2                	ld	ra,8(sp)
    800007fc:	6402                	ld	s0,0(sp)
    800007fe:	0141                	addi	sp,sp,16
    80000800:	8082                	ret

0000000080000802 <uvmunmap>:
// Remove npages of mappings starting from va. va must be
// page-aligned. The mappings must exist.
// Optionally free the physical memory.
void
uvmunmap(pagetable_t pagetable, uint64 va, uint64 npages, int do_free)
{
    80000802:	715d                	addi	sp,sp,-80
    80000804:	e486                	sd	ra,72(sp)
    80000806:	e0a2                	sd	s0,64(sp)
    80000808:	fc26                	sd	s1,56(sp)
    8000080a:	f84a                	sd	s2,48(sp)
    8000080c:	f44e                	sd	s3,40(sp)
    8000080e:	f052                	sd	s4,32(sp)
    80000810:	ec56                	sd	s5,24(sp)
    80000812:	e85a                	sd	s6,16(sp)
    80000814:	e45e                	sd	s7,8(sp)
    80000816:	0880                	addi	s0,sp,80
  uint64 a;
  pte_t *pte;

  if((va % PGSIZE) != 0)
    80000818:	03459793          	slli	a5,a1,0x34
    8000081c:	e795                	bnez	a5,80000848 <uvmunmap+0x46>
    8000081e:	8a2a                	mv	s4,a0
    80000820:	892e                	mv	s2,a1
    80000822:	8ab6                	mv	s5,a3
    panic("uvmunmap: not aligned");

  for(a = va; a < va + npages*PGSIZE; a += PGSIZE){
    80000824:	0632                	slli	a2,a2,0xc
    80000826:	00b609b3          	add	s3,a2,a1
    if((pte = walk(pagetable, a, 0)) == 0)
      panic("uvmunmap: walk");
    if((*pte & PTE_V) == 0)
      panic("uvmunmap: not mapped");
    if(PTE_FLAGS(*pte) == PTE_V)
    8000082a:	4b85                	li	s7,1
  for(a = va; a < va + npages*PGSIZE; a += PGSIZE){
    8000082c:	6b05                	lui	s6,0x1
    8000082e:	0735e863          	bltu	a1,s3,8000089e <uvmunmap+0x9c>
      uint64 pa = PTE2PA(*pte);
      kfree((void*)pa);
    }
    *pte = 0;
  }
}
    80000832:	60a6                	ld	ra,72(sp)
    80000834:	6406                	ld	s0,64(sp)
    80000836:	74e2                	ld	s1,56(sp)
    80000838:	7942                	ld	s2,48(sp)
    8000083a:	79a2                	ld	s3,40(sp)
    8000083c:	7a02                	ld	s4,32(sp)
    8000083e:	6ae2                	ld	s5,24(sp)
    80000840:	6b42                	ld	s6,16(sp)
    80000842:	6ba2                	ld	s7,8(sp)
    80000844:	6161                	addi	sp,sp,80
    80000846:	8082                	ret
    panic("uvmunmap: not aligned");
    80000848:	00008517          	auipc	a0,0x8
    8000084c:	86850513          	addi	a0,a0,-1944 # 800080b0 <etext+0xb0>
    80000850:	00005097          	auipc	ra,0x5
    80000854:	4f8080e7          	jalr	1272(ra) # 80005d48 <panic>
      panic("uvmunmap: walk");
    80000858:	00008517          	auipc	a0,0x8
    8000085c:	87050513          	addi	a0,a0,-1936 # 800080c8 <etext+0xc8>
    80000860:	00005097          	auipc	ra,0x5
    80000864:	4e8080e7          	jalr	1256(ra) # 80005d48 <panic>
      panic("uvmunmap: not mapped");
    80000868:	00008517          	auipc	a0,0x8
    8000086c:	87050513          	addi	a0,a0,-1936 # 800080d8 <etext+0xd8>
    80000870:	00005097          	auipc	ra,0x5
    80000874:	4d8080e7          	jalr	1240(ra) # 80005d48 <panic>
      panic("uvmunmap: not a leaf");
    80000878:	00008517          	auipc	a0,0x8
    8000087c:	87850513          	addi	a0,a0,-1928 # 800080f0 <etext+0xf0>
    80000880:	00005097          	auipc	ra,0x5
    80000884:	4c8080e7          	jalr	1224(ra) # 80005d48 <panic>
      uint64 pa = PTE2PA(*pte);
    80000888:	8129                	srli	a0,a0,0xa
      kfree((void*)pa);
    8000088a:	0532                	slli	a0,a0,0xc
    8000088c:	fffff097          	auipc	ra,0xfffff
    80000890:	7e0080e7          	jalr	2016(ra) # 8000006c <kfree>
    *pte = 0;
    80000894:	0004b023          	sd	zero,0(s1)
  for(a = va; a < va + npages*PGSIZE; a += PGSIZE){
    80000898:	995a                	add	s2,s2,s6
    8000089a:	f9397ce3          	bgeu	s2,s3,80000832 <uvmunmap+0x30>
    if((pte = walk(pagetable, a, 0)) == 0)
    8000089e:	4601                	li	a2,0
    800008a0:	85ca                	mv	a1,s2
    800008a2:	8552                	mv	a0,s4
    800008a4:	00000097          	auipc	ra,0x0
    800008a8:	c8e080e7          	jalr	-882(ra) # 80000532 <walk>
    800008ac:	84aa                	mv	s1,a0
    800008ae:	d54d                	beqz	a0,80000858 <uvmunmap+0x56>
    if((*pte & PTE_V) == 0)
    800008b0:	6108                	ld	a0,0(a0)
    800008b2:	00157793          	andi	a5,a0,1
    800008b6:	dbcd                	beqz	a5,80000868 <uvmunmap+0x66>
    if(PTE_FLAGS(*pte) == PTE_V)
    800008b8:	3ff57793          	andi	a5,a0,1023
    800008bc:	fb778ee3          	beq	a5,s7,80000878 <uvmunmap+0x76>
    if(do_free){
    800008c0:	fc0a8ae3          	beqz	s5,80000894 <uvmunmap+0x92>
    800008c4:	b7d1                	j	80000888 <uvmunmap+0x86>

00000000800008c6 <uvmcreate>:

// create an empty user page table.
// returns 0 if out of memory.
pagetable_t
uvmcreate()
{
    800008c6:	1101                	addi	sp,sp,-32
    800008c8:	ec06                	sd	ra,24(sp)
    800008ca:	e822                	sd	s0,16(sp)
    800008cc:	e426                	sd	s1,8(sp)
    800008ce:	1000                	addi	s0,sp,32
  pagetable_t pagetable;
  pagetable = (pagetable_t) kalloc();
    800008d0:	00000097          	auipc	ra,0x0
    800008d4:	900080e7          	jalr	-1792(ra) # 800001d0 <kalloc>
    800008d8:	84aa                	mv	s1,a0
  if(pagetable == 0)
    800008da:	c519                	beqz	a0,800008e8 <uvmcreate+0x22>
    return 0;
  memset(pagetable, 0, PGSIZE);
    800008dc:	6605                	lui	a2,0x1
    800008de:	4581                	li	a1,0
    800008e0:	00000097          	auipc	ra,0x0
    800008e4:	96a080e7          	jalr	-1686(ra) # 8000024a <memset>
  return pagetable;
}
    800008e8:	8526                	mv	a0,s1
    800008ea:	60e2                	ld	ra,24(sp)
    800008ec:	6442                	ld	s0,16(sp)
    800008ee:	64a2                	ld	s1,8(sp)
    800008f0:	6105                	addi	sp,sp,32
    800008f2:	8082                	ret

00000000800008f4 <uvminit>:
// Load the user initcode into address 0 of pagetable,
// for the very first process.
// sz must be less than a page.
void
uvminit(pagetable_t pagetable, uchar *src, uint sz)
{
    800008f4:	7179                	addi	sp,sp,-48
    800008f6:	f406                	sd	ra,40(sp)
    800008f8:	f022                	sd	s0,32(sp)
    800008fa:	ec26                	sd	s1,24(sp)
    800008fc:	e84a                	sd	s2,16(sp)
    800008fe:	e44e                	sd	s3,8(sp)
    80000900:	e052                	sd	s4,0(sp)
    80000902:	1800                	addi	s0,sp,48
  char *mem;

  if(sz >= PGSIZE)
    80000904:	6785                	lui	a5,0x1
    80000906:	04f67863          	bgeu	a2,a5,80000956 <uvminit+0x62>
    8000090a:	8a2a                	mv	s4,a0
    8000090c:	89ae                	mv	s3,a1
    8000090e:	84b2                	mv	s1,a2
    panic("inituvm: more than a page");
  mem = kalloc();
    80000910:	00000097          	auipc	ra,0x0
    80000914:	8c0080e7          	jalr	-1856(ra) # 800001d0 <kalloc>
    80000918:	892a                	mv	s2,a0
  memset(mem, 0, PGSIZE);
    8000091a:	6605                	lui	a2,0x1
    8000091c:	4581                	li	a1,0
    8000091e:	00000097          	auipc	ra,0x0
    80000922:	92c080e7          	jalr	-1748(ra) # 8000024a <memset>
  mappages(pagetable, 0, PGSIZE, (uint64)mem, PTE_W|PTE_R|PTE_X|PTE_U);
    80000926:	4779                	li	a4,30
    80000928:	86ca                	mv	a3,s2
    8000092a:	6605                	lui	a2,0x1
    8000092c:	4581                	li	a1,0
    8000092e:	8552                	mv	a0,s4
    80000930:	00000097          	auipc	ra,0x0
    80000934:	cea080e7          	jalr	-790(ra) # 8000061a <mappages>
  memmove(mem, src, sz);
    80000938:	8626                	mv	a2,s1
    8000093a:	85ce                	mv	a1,s3
    8000093c:	854a                	mv	a0,s2
    8000093e:	00000097          	auipc	ra,0x0
    80000942:	96c080e7          	jalr	-1684(ra) # 800002aa <memmove>
}
    80000946:	70a2                	ld	ra,40(sp)
    80000948:	7402                	ld	s0,32(sp)
    8000094a:	64e2                	ld	s1,24(sp)
    8000094c:	6942                	ld	s2,16(sp)
    8000094e:	69a2                	ld	s3,8(sp)
    80000950:	6a02                	ld	s4,0(sp)
    80000952:	6145                	addi	sp,sp,48
    80000954:	8082                	ret
    panic("inituvm: more than a page");
    80000956:	00007517          	auipc	a0,0x7
    8000095a:	7b250513          	addi	a0,a0,1970 # 80008108 <etext+0x108>
    8000095e:	00005097          	auipc	ra,0x5
    80000962:	3ea080e7          	jalr	1002(ra) # 80005d48 <panic>

0000000080000966 <uvmdealloc>:
// newsz.  oldsz and newsz need not be page-aligned, nor does newsz
// need to be less than oldsz.  oldsz can be larger than the actual
// process size.  Returns the new process size.
uint64
uvmdealloc(pagetable_t pagetable, uint64 oldsz, uint64 newsz)
{
    80000966:	1101                	addi	sp,sp,-32
    80000968:	ec06                	sd	ra,24(sp)
    8000096a:	e822                	sd	s0,16(sp)
    8000096c:	e426                	sd	s1,8(sp)
    8000096e:	1000                	addi	s0,sp,32
  if(newsz >= oldsz)
    return oldsz;
    80000970:	84ae                	mv	s1,a1
  if(newsz >= oldsz)
    80000972:	00b67d63          	bgeu	a2,a1,8000098c <uvmdealloc+0x26>
    80000976:	84b2                	mv	s1,a2

  if(PGROUNDUP(newsz) < PGROUNDUP(oldsz)){
    80000978:	6785                	lui	a5,0x1
    8000097a:	17fd                	addi	a5,a5,-1
    8000097c:	00f60733          	add	a4,a2,a5
    80000980:	767d                	lui	a2,0xfffff
    80000982:	8f71                	and	a4,a4,a2
    80000984:	97ae                	add	a5,a5,a1
    80000986:	8ff1                	and	a5,a5,a2
    80000988:	00f76863          	bltu	a4,a5,80000998 <uvmdealloc+0x32>
    int npages = (PGROUNDUP(oldsz) - PGROUNDUP(newsz)) / PGSIZE;
    uvmunmap(pagetable, PGROUNDUP(newsz), npages, 1);
  }

  return newsz;
}
    8000098c:	8526                	mv	a0,s1
    8000098e:	60e2                	ld	ra,24(sp)
    80000990:	6442                	ld	s0,16(sp)
    80000992:	64a2                	ld	s1,8(sp)
    80000994:	6105                	addi	sp,sp,32
    80000996:	8082                	ret
    int npages = (PGROUNDUP(oldsz) - PGROUNDUP(newsz)) / PGSIZE;
    80000998:	8f99                	sub	a5,a5,a4
    8000099a:	83b1                	srli	a5,a5,0xc
    uvmunmap(pagetable, PGROUNDUP(newsz), npages, 1);
    8000099c:	4685                	li	a3,1
    8000099e:	0007861b          	sext.w	a2,a5
    800009a2:	85ba                	mv	a1,a4
    800009a4:	00000097          	auipc	ra,0x0
    800009a8:	e5e080e7          	jalr	-418(ra) # 80000802 <uvmunmap>
    800009ac:	b7c5                	j	8000098c <uvmdealloc+0x26>

00000000800009ae <uvmalloc>:
  if(newsz < oldsz)
    800009ae:	0ab66163          	bltu	a2,a1,80000a50 <uvmalloc+0xa2>
{
    800009b2:	7139                	addi	sp,sp,-64
    800009b4:	fc06                	sd	ra,56(sp)
    800009b6:	f822                	sd	s0,48(sp)
    800009b8:	f426                	sd	s1,40(sp)
    800009ba:	f04a                	sd	s2,32(sp)
    800009bc:	ec4e                	sd	s3,24(sp)
    800009be:	e852                	sd	s4,16(sp)
    800009c0:	e456                	sd	s5,8(sp)
    800009c2:	0080                	addi	s0,sp,64
    800009c4:	8aaa                	mv	s5,a0
    800009c6:	8a32                	mv	s4,a2
  oldsz = PGROUNDUP(oldsz);
    800009c8:	6985                	lui	s3,0x1
    800009ca:	19fd                	addi	s3,s3,-1
    800009cc:	95ce                	add	a1,a1,s3
    800009ce:	79fd                	lui	s3,0xfffff
    800009d0:	0135f9b3          	and	s3,a1,s3
  for(a = oldsz; a < newsz; a += PGSIZE){
    800009d4:	08c9f063          	bgeu	s3,a2,80000a54 <uvmalloc+0xa6>
    800009d8:	894e                	mv	s2,s3
    mem = kalloc();
    800009da:	fffff097          	auipc	ra,0xfffff
    800009de:	7f6080e7          	jalr	2038(ra) # 800001d0 <kalloc>
    800009e2:	84aa                	mv	s1,a0
    if(mem == 0){
    800009e4:	c51d                	beqz	a0,80000a12 <uvmalloc+0x64>
    memset(mem, 0, PGSIZE);
    800009e6:	6605                	lui	a2,0x1
    800009e8:	4581                	li	a1,0
    800009ea:	00000097          	auipc	ra,0x0
    800009ee:	860080e7          	jalr	-1952(ra) # 8000024a <memset>
    if(mappages(pagetable, a, PGSIZE, (uint64)mem, PTE_W|PTE_X|PTE_R|PTE_U) != 0){
    800009f2:	4779                	li	a4,30
    800009f4:	86a6                	mv	a3,s1
    800009f6:	6605                	lui	a2,0x1
    800009f8:	85ca                	mv	a1,s2
    800009fa:	8556                	mv	a0,s5
    800009fc:	00000097          	auipc	ra,0x0
    80000a00:	c1e080e7          	jalr	-994(ra) # 8000061a <mappages>
    80000a04:	e905                	bnez	a0,80000a34 <uvmalloc+0x86>
  for(a = oldsz; a < newsz; a += PGSIZE){
    80000a06:	6785                	lui	a5,0x1
    80000a08:	993e                	add	s2,s2,a5
    80000a0a:	fd4968e3          	bltu	s2,s4,800009da <uvmalloc+0x2c>
  return newsz;
    80000a0e:	8552                	mv	a0,s4
    80000a10:	a809                	j	80000a22 <uvmalloc+0x74>
      uvmdealloc(pagetable, a, oldsz);
    80000a12:	864e                	mv	a2,s3
    80000a14:	85ca                	mv	a1,s2
    80000a16:	8556                	mv	a0,s5
    80000a18:	00000097          	auipc	ra,0x0
    80000a1c:	f4e080e7          	jalr	-178(ra) # 80000966 <uvmdealloc>
      return 0;
    80000a20:	4501                	li	a0,0
}
    80000a22:	70e2                	ld	ra,56(sp)
    80000a24:	7442                	ld	s0,48(sp)
    80000a26:	74a2                	ld	s1,40(sp)
    80000a28:	7902                	ld	s2,32(sp)
    80000a2a:	69e2                	ld	s3,24(sp)
    80000a2c:	6a42                	ld	s4,16(sp)
    80000a2e:	6aa2                	ld	s5,8(sp)
    80000a30:	6121                	addi	sp,sp,64
    80000a32:	8082                	ret
      kfree(mem);
    80000a34:	8526                	mv	a0,s1
    80000a36:	fffff097          	auipc	ra,0xfffff
    80000a3a:	636080e7          	jalr	1590(ra) # 8000006c <kfree>
      uvmdealloc(pagetable, a, oldsz);
    80000a3e:	864e                	mv	a2,s3
    80000a40:	85ca                	mv	a1,s2
    80000a42:	8556                	mv	a0,s5
    80000a44:	00000097          	auipc	ra,0x0
    80000a48:	f22080e7          	jalr	-222(ra) # 80000966 <uvmdealloc>
      return 0;
    80000a4c:	4501                	li	a0,0
    80000a4e:	bfd1                	j	80000a22 <uvmalloc+0x74>
    return oldsz;
    80000a50:	852e                	mv	a0,a1
}
    80000a52:	8082                	ret
  return newsz;
    80000a54:	8532                	mv	a0,a2
    80000a56:	b7f1                	j	80000a22 <uvmalloc+0x74>

0000000080000a58 <freewalk>:

// Recursively free page-table pages.
// All leaf mappings must already have been removed.
void
freewalk(pagetable_t pagetable)
{
    80000a58:	7179                	addi	sp,sp,-48
    80000a5a:	f406                	sd	ra,40(sp)
    80000a5c:	f022                	sd	s0,32(sp)
    80000a5e:	ec26                	sd	s1,24(sp)
    80000a60:	e84a                	sd	s2,16(sp)
    80000a62:	e44e                	sd	s3,8(sp)
    80000a64:	e052                	sd	s4,0(sp)
    80000a66:	1800                	addi	s0,sp,48
    80000a68:	8a2a                	mv	s4,a0
  // there are 2^9 = 512 PTEs in a page table.
  for(int i = 0; i < 512; i++){
    80000a6a:	84aa                	mv	s1,a0
    80000a6c:	6905                	lui	s2,0x1
    80000a6e:	992a                	add	s2,s2,a0
    pte_t pte = pagetable[i];
    if((pte & PTE_V) && (pte & (PTE_R|PTE_W|PTE_X)) == 0){
    80000a70:	4985                	li	s3,1
    80000a72:	a821                	j	80000a8a <freewalk+0x32>
      // this PTE points to a lower-level page table.
      uint64 child = PTE2PA(pte);
    80000a74:	8129                	srli	a0,a0,0xa
      freewalk((pagetable_t)child);
    80000a76:	0532                	slli	a0,a0,0xc
    80000a78:	00000097          	auipc	ra,0x0
    80000a7c:	fe0080e7          	jalr	-32(ra) # 80000a58 <freewalk>
      pagetable[i] = 0;
    80000a80:	0004b023          	sd	zero,0(s1)
  for(int i = 0; i < 512; i++){
    80000a84:	04a1                	addi	s1,s1,8
    80000a86:	03248163          	beq	s1,s2,80000aa8 <freewalk+0x50>
    pte_t pte = pagetable[i];
    80000a8a:	6088                	ld	a0,0(s1)
    if((pte & PTE_V) && (pte & (PTE_R|PTE_W|PTE_X)) == 0){
    80000a8c:	00f57793          	andi	a5,a0,15
    80000a90:	ff3782e3          	beq	a5,s3,80000a74 <freewalk+0x1c>
    } else if(pte & PTE_V){
    80000a94:	8905                	andi	a0,a0,1
    80000a96:	d57d                	beqz	a0,80000a84 <freewalk+0x2c>
      panic("freewalk: leaf");
    80000a98:	00007517          	auipc	a0,0x7
    80000a9c:	69050513          	addi	a0,a0,1680 # 80008128 <etext+0x128>
    80000aa0:	00005097          	auipc	ra,0x5
    80000aa4:	2a8080e7          	jalr	680(ra) # 80005d48 <panic>
    }
  }
  kfree((void*)pagetable);
    80000aa8:	8552                	mv	a0,s4
    80000aaa:	fffff097          	auipc	ra,0xfffff
    80000aae:	5c2080e7          	jalr	1474(ra) # 8000006c <kfree>
}
    80000ab2:	70a2                	ld	ra,40(sp)
    80000ab4:	7402                	ld	s0,32(sp)
    80000ab6:	64e2                	ld	s1,24(sp)
    80000ab8:	6942                	ld	s2,16(sp)
    80000aba:	69a2                	ld	s3,8(sp)
    80000abc:	6a02                	ld	s4,0(sp)
    80000abe:	6145                	addi	sp,sp,48
    80000ac0:	8082                	ret

0000000080000ac2 <uvmfree>:

// Free user memory pages,
// then free page-table pages.
void
uvmfree(pagetable_t pagetable, uint64 sz)
{
    80000ac2:	1101                	addi	sp,sp,-32
    80000ac4:	ec06                	sd	ra,24(sp)
    80000ac6:	e822                	sd	s0,16(sp)
    80000ac8:	e426                	sd	s1,8(sp)
    80000aca:	1000                	addi	s0,sp,32
    80000acc:	84aa                	mv	s1,a0
  if(sz > 0)
    80000ace:	e999                	bnez	a1,80000ae4 <uvmfree+0x22>
    uvmunmap(pagetable, 0, PGROUNDUP(sz)/PGSIZE, 1);
  freewalk(pagetable);
    80000ad0:	8526                	mv	a0,s1
    80000ad2:	00000097          	auipc	ra,0x0
    80000ad6:	f86080e7          	jalr	-122(ra) # 80000a58 <freewalk>
}
    80000ada:	60e2                	ld	ra,24(sp)
    80000adc:	6442                	ld	s0,16(sp)
    80000ade:	64a2                	ld	s1,8(sp)
    80000ae0:	6105                	addi	sp,sp,32
    80000ae2:	8082                	ret
    uvmunmap(pagetable, 0, PGROUNDUP(sz)/PGSIZE, 1);
    80000ae4:	6605                	lui	a2,0x1
    80000ae6:	167d                	addi	a2,a2,-1
    80000ae8:	962e                	add	a2,a2,a1
    80000aea:	4685                	li	a3,1
    80000aec:	8231                	srli	a2,a2,0xc
    80000aee:	4581                	li	a1,0
    80000af0:	00000097          	auipc	ra,0x0
    80000af4:	d12080e7          	jalr	-750(ra) # 80000802 <uvmunmap>
    80000af8:	bfe1                	j	80000ad0 <uvmfree+0xe>

0000000080000afa <uvmcopy>:
// physical memory.
// returns 0 on success, -1 on failure.
// frees any allocated pages on failure.
int
uvmcopy(pagetable_t old, pagetable_t new, uint64 sz)
{
    80000afa:	7139                	addi	sp,sp,-64
    80000afc:	fc06                	sd	ra,56(sp)
    80000afe:	f822                	sd	s0,48(sp)
    80000b00:	f426                	sd	s1,40(sp)
    80000b02:	f04a                	sd	s2,32(sp)
    80000b04:	ec4e                	sd	s3,24(sp)
    80000b06:	e852                	sd	s4,16(sp)
    80000b08:	e456                	sd	s5,8(sp)
    80000b0a:	e05a                	sd	s6,0(sp)
    80000b0c:	0080                	addi	s0,sp,64
  pte_t *pte;
  uint64 pa, i;
  uint flags;

  for(i = 0; i < sz; i += PGSIZE){
    80000b0e:	c645                	beqz	a2,80000bb6 <uvmcopy+0xbc>
    80000b10:	8aaa                	mv	s5,a0
    80000b12:	8a2e                	mv	s4,a1
    80000b14:	89b2                	mv	s3,a2
    80000b16:	4481                	li	s1,0
    if((pte = walk(old, i, 0)) == 0)
    80000b18:	4601                	li	a2,0
    80000b1a:	85a6                	mv	a1,s1
    80000b1c:	8556                	mv	a0,s5
    80000b1e:	00000097          	auipc	ra,0x0
    80000b22:	a14080e7          	jalr	-1516(ra) # 80000532 <walk>
    80000b26:	c139                	beqz	a0,80000b6c <uvmcopy+0x72>
      panic("uvmcopy: pte should exist");
    if((*pte & PTE_V) == 0)
    80000b28:	6118                	ld	a4,0(a0)
    80000b2a:	00177793          	andi	a5,a4,1
    80000b2e:	c7b9                	beqz	a5,80000b7c <uvmcopy+0x82>
      panic("uvmcopy: page not present");
    pa = PTE2PA(*pte);
    80000b30:	00a75913          	srli	s2,a4,0xa
    80000b34:	0932                	slli	s2,s2,0xc
    *pte = (*pte & ~PTE_W) | PTE_C;
    80000b36:	fdb77713          	andi	a4,a4,-37
    80000b3a:	02076713          	ori	a4,a4,32
    80000b3e:	e118                	sd	a4,0(a0)
    flags = PTE_FLAGS(*pte);
    if(mappages(new, i, PGSIZE,pa, flags) != 0){
    80000b40:	3fb77713          	andi	a4,a4,1019
    80000b44:	86ca                	mv	a3,s2
    80000b46:	6605                	lui	a2,0x1
    80000b48:	85a6                	mv	a1,s1
    80000b4a:	8552                	mv	a0,s4
    80000b4c:	00000097          	auipc	ra,0x0
    80000b50:	ace080e7          	jalr	-1330(ra) # 8000061a <mappages>
    80000b54:	8b2a                	mv	s6,a0
    80000b56:	e91d                	bnez	a0,80000b8c <uvmcopy+0x92>
      goto err;
    }
    add_rc(pa);
    80000b58:	854a                	mv	a0,s2
    80000b5a:	fffff097          	auipc	ra,0xfffff
    80000b5e:	4c2080e7          	jalr	1218(ra) # 8000001c <add_rc>
  for(i = 0; i < sz; i += PGSIZE){
    80000b62:	6785                	lui	a5,0x1
    80000b64:	94be                	add	s1,s1,a5
    80000b66:	fb34e9e3          	bltu	s1,s3,80000b18 <uvmcopy+0x1e>
    80000b6a:	a81d                	j	80000ba0 <uvmcopy+0xa6>
      panic("uvmcopy: pte should exist");
    80000b6c:	00007517          	auipc	a0,0x7
    80000b70:	5cc50513          	addi	a0,a0,1484 # 80008138 <etext+0x138>
    80000b74:	00005097          	auipc	ra,0x5
    80000b78:	1d4080e7          	jalr	468(ra) # 80005d48 <panic>
      panic("uvmcopy: page not present");
    80000b7c:	00007517          	auipc	a0,0x7
    80000b80:	5dc50513          	addi	a0,a0,1500 # 80008158 <etext+0x158>
    80000b84:	00005097          	auipc	ra,0x5
    80000b88:	1c4080e7          	jalr	452(ra) # 80005d48 <panic>
  }
  return 0;

 err:
  uvmunmap(new, 0, i / PGSIZE, 1);
    80000b8c:	4685                	li	a3,1
    80000b8e:	00c4d613          	srli	a2,s1,0xc
    80000b92:	4581                	li	a1,0
    80000b94:	8552                	mv	a0,s4
    80000b96:	00000097          	auipc	ra,0x0
    80000b9a:	c6c080e7          	jalr	-916(ra) # 80000802 <uvmunmap>
  return -1;
    80000b9e:	5b7d                	li	s6,-1
}
    80000ba0:	855a                	mv	a0,s6
    80000ba2:	70e2                	ld	ra,56(sp)
    80000ba4:	7442                	ld	s0,48(sp)
    80000ba6:	74a2                	ld	s1,40(sp)
    80000ba8:	7902                	ld	s2,32(sp)
    80000baa:	69e2                	ld	s3,24(sp)
    80000bac:	6a42                	ld	s4,16(sp)
    80000bae:	6aa2                	ld	s5,8(sp)
    80000bb0:	6b02                	ld	s6,0(sp)
    80000bb2:	6121                	addi	sp,sp,64
    80000bb4:	8082                	ret
  return 0;
    80000bb6:	4b01                	li	s6,0
    80000bb8:	b7e5                	j	80000ba0 <uvmcopy+0xa6>

0000000080000bba <uvmclear>:

// mark a PTE invalid for user access.
// used by exec for the user stack guard page.
void
uvmclear(pagetable_t pagetable, uint64 va)
{
    80000bba:	1141                	addi	sp,sp,-16
    80000bbc:	e406                	sd	ra,8(sp)
    80000bbe:	e022                	sd	s0,0(sp)
    80000bc0:	0800                	addi	s0,sp,16
  pte_t *pte;
  
  pte = walk(pagetable, va, 0);
    80000bc2:	4601                	li	a2,0
    80000bc4:	00000097          	auipc	ra,0x0
    80000bc8:	96e080e7          	jalr	-1682(ra) # 80000532 <walk>
  if(pte == 0)
    80000bcc:	c901                	beqz	a0,80000bdc <uvmclear+0x22>
    panic("uvmclear");
  *pte &= ~PTE_U;
    80000bce:	611c                	ld	a5,0(a0)
    80000bd0:	9bbd                	andi	a5,a5,-17
    80000bd2:	e11c                	sd	a5,0(a0)
}
    80000bd4:	60a2                	ld	ra,8(sp)
    80000bd6:	6402                	ld	s0,0(sp)
    80000bd8:	0141                	addi	sp,sp,16
    80000bda:	8082                	ret
    panic("uvmclear");
    80000bdc:	00007517          	auipc	a0,0x7
    80000be0:	59c50513          	addi	a0,a0,1436 # 80008178 <etext+0x178>
    80000be4:	00005097          	auipc	ra,0x5
    80000be8:	164080e7          	jalr	356(ra) # 80005d48 <panic>

0000000080000bec <copyout>:
int
copyout(pagetable_t pagetable, uint64 dstva, char *src, uint64 len)
{
  uint64 n, va0, pa0, flag;
  pte_t* pte;
  while(len > 0){
    80000bec:	caf1                	beqz	a3,80000cc0 <copyout+0xd4>
{
    80000bee:	711d                	addi	sp,sp,-96
    80000bf0:	ec86                	sd	ra,88(sp)
    80000bf2:	e8a2                	sd	s0,80(sp)
    80000bf4:	e4a6                	sd	s1,72(sp)
    80000bf6:	e0ca                	sd	s2,64(sp)
    80000bf8:	fc4e                	sd	s3,56(sp)
    80000bfa:	f852                	sd	s4,48(sp)
    80000bfc:	f456                	sd	s5,40(sp)
    80000bfe:	f05a                	sd	s6,32(sp)
    80000c00:	ec5e                	sd	s7,24(sp)
    80000c02:	e862                	sd	s8,16(sp)
    80000c04:	e466                	sd	s9,8(sp)
    80000c06:	e06a                	sd	s10,0(sp)
    80000c08:	1080                	addi	s0,sp,96
    80000c0a:	8c2a                	mv	s8,a0
    80000c0c:	8b2e                	mv	s6,a1
    80000c0e:	8bb2                	mv	s7,a2
    80000c10:	8ab6                	mv	s5,a3
    va0 = PGROUNDDOWN(dstva);
    80000c12:	797d                	lui	s2,0xfffff
    80000c14:	0125f933          	and	s2,a1,s2
    if(va0 >= MAXVA)
    80000c18:	57fd                	li	a5,-1
    80000c1a:	83e9                	srli	a5,a5,0x1a
    80000c1c:	0b27e463          	bltu	a5,s2,80000cc4 <copyout+0xd8>
    80000c20:	8cbe                	mv	s9,a5
    80000c22:	a095                	j	80000c86 <copyout+0x9a>
    if(pte == 0)
        return -1;
    pa0 = PTE2PA(*pte);
    flag = PTE_FLAGS(*pte);
    if(flag & PTE_C){
        char* mem = kalloc();
    80000c24:	fffff097          	auipc	ra,0xfffff
    80000c28:	5ac080e7          	jalr	1452(ra) # 800001d0 <kalloc>
    80000c2c:	8a2a                	mv	s4,a0
        if(mem == 0){
    80000c2e:	cd55                	beqz	a0,80000cea <copyout+0xfe>
            return -1;
        }
        memmove(mem,(char*)pa0,PGSIZE);
    80000c30:	6605                	lui	a2,0x1
    80000c32:	85ce                	mv	a1,s3
    80000c34:	fffff097          	auipc	ra,0xfffff
    80000c38:	676080e7          	jalr	1654(ra) # 800002aa <memmove>
        kfree((char*)pa0);
    80000c3c:	854e                	mv	a0,s3
    80000c3e:	fffff097          	auipc	ra,0xfffff
    80000c42:	42e080e7          	jalr	1070(ra) # 8000006c <kfree>
        *pte = PA2PTE((uint64)mem) | (flag & ~PTE_C) | PTE_W;
    80000c46:	89d2                	mv	s3,s4
    80000c48:	00ca5a13          	srli	s4,s4,0xc
    80000c4c:	0a2a                	slli	s4,s4,0xa
    80000c4e:	3dfd7d13          	andi	s10,s10,991
    80000c52:	01aa6a33          	or	s4,s4,s10
    80000c56:	004a6a13          	ori	s4,s4,4
    80000c5a:	0144b023          	sd	s4,0(s1)
        pa0 = (uint64)mem;
    }
    if(pa0 == 0)
    80000c5e:	a0b9                	j	80000cac <copyout+0xc0>
      return -1;
    n = PGSIZE - (dstva - va0);
    if(n > len)
      n = len;
    memmove((void *)(pa0 + (dstva - va0)), src, n);
    80000c60:	412b0533          	sub	a0,s6,s2
    80000c64:	000a061b          	sext.w	a2,s4
    80000c68:	85de                	mv	a1,s7
    80000c6a:	954e                	add	a0,a0,s3
    80000c6c:	fffff097          	auipc	ra,0xfffff
    80000c70:	63e080e7          	jalr	1598(ra) # 800002aa <memmove>

    len -= n;
    80000c74:	414a8ab3          	sub	s5,s5,s4
    src += n;
    80000c78:	9bd2                	add	s7,s7,s4
  while(len > 0){
    80000c7a:	040a8163          	beqz	s5,80000cbc <copyout+0xd0>
    if(va0 >= MAXVA)
    80000c7e:	049ce563          	bltu	s9,s1,80000cc8 <copyout+0xdc>
    va0 = PGROUNDDOWN(dstva);
    80000c82:	8926                	mv	s2,s1
    dstva = va0 + PGSIZE;
    80000c84:	8b26                	mv	s6,s1
    pte = walk(pagetable,va0,0);
    80000c86:	4601                	li	a2,0
    80000c88:	85ca                	mv	a1,s2
    80000c8a:	8562                	mv	a0,s8
    80000c8c:	00000097          	auipc	ra,0x0
    80000c90:	8a6080e7          	jalr	-1882(ra) # 80000532 <walk>
    80000c94:	84aa                	mv	s1,a0
    if(pte == 0)
    80000c96:	c91d                	beqz	a0,80000ccc <copyout+0xe0>
    pa0 = PTE2PA(*pte);
    80000c98:	00053d03          	ld	s10,0(a0)
    80000c9c:	00ad5993          	srli	s3,s10,0xa
    80000ca0:	09b2                	slli	s3,s3,0xc
    if(flag & PTE_C){
    80000ca2:	020d7793          	andi	a5,s10,32
    80000ca6:	ffbd                	bnez	a5,80000c24 <copyout+0x38>
    if(pa0 == 0)
    80000ca8:	04098363          	beqz	s3,80000cee <copyout+0x102>
    n = PGSIZE - (dstva - va0);
    80000cac:	6485                	lui	s1,0x1
    80000cae:	94ca                	add	s1,s1,s2
    80000cb0:	41648a33          	sub	s4,s1,s6
    if(n > len)
    80000cb4:	fb4af6e3          	bgeu	s5,s4,80000c60 <copyout+0x74>
    80000cb8:	8a56                	mv	s4,s5
    80000cba:	b75d                	j	80000c60 <copyout+0x74>
  }
  return 0;
    80000cbc:	4501                	li	a0,0
    80000cbe:	a801                	j	80000cce <copyout+0xe2>
    80000cc0:	4501                	li	a0,0
}
    80000cc2:	8082                	ret
        return -1;
    80000cc4:	557d                	li	a0,-1
    80000cc6:	a021                	j	80000cce <copyout+0xe2>
    80000cc8:	557d                	li	a0,-1
    80000cca:	a011                	j	80000cce <copyout+0xe2>
        return -1;
    80000ccc:	557d                	li	a0,-1
}
    80000cce:	60e6                	ld	ra,88(sp)
    80000cd0:	6446                	ld	s0,80(sp)
    80000cd2:	64a6                	ld	s1,72(sp)
    80000cd4:	6906                	ld	s2,64(sp)
    80000cd6:	79e2                	ld	s3,56(sp)
    80000cd8:	7a42                	ld	s4,48(sp)
    80000cda:	7aa2                	ld	s5,40(sp)
    80000cdc:	7b02                	ld	s6,32(sp)
    80000cde:	6be2                	ld	s7,24(sp)
    80000ce0:	6c42                	ld	s8,16(sp)
    80000ce2:	6ca2                	ld	s9,8(sp)
    80000ce4:	6d02                	ld	s10,0(sp)
    80000ce6:	6125                	addi	sp,sp,96
    80000ce8:	8082                	ret
            return -1;
    80000cea:	557d                	li	a0,-1
    80000cec:	b7cd                	j	80000cce <copyout+0xe2>
      return -1;
    80000cee:	557d                	li	a0,-1
    80000cf0:	bff9                	j	80000cce <copyout+0xe2>

0000000080000cf2 <copyin>:
int
copyin(pagetable_t pagetable, char *dst, uint64 srcva, uint64 len)
{
  uint64 n, va0, pa0;

  while(len > 0){
    80000cf2:	c6bd                	beqz	a3,80000d60 <copyin+0x6e>
{
    80000cf4:	715d                	addi	sp,sp,-80
    80000cf6:	e486                	sd	ra,72(sp)
    80000cf8:	e0a2                	sd	s0,64(sp)
    80000cfa:	fc26                	sd	s1,56(sp)
    80000cfc:	f84a                	sd	s2,48(sp)
    80000cfe:	f44e                	sd	s3,40(sp)
    80000d00:	f052                	sd	s4,32(sp)
    80000d02:	ec56                	sd	s5,24(sp)
    80000d04:	e85a                	sd	s6,16(sp)
    80000d06:	e45e                	sd	s7,8(sp)
    80000d08:	e062                	sd	s8,0(sp)
    80000d0a:	0880                	addi	s0,sp,80
    80000d0c:	8b2a                	mv	s6,a0
    80000d0e:	8a2e                	mv	s4,a1
    80000d10:	8c32                	mv	s8,a2
    80000d12:	89b6                	mv	s3,a3
    va0 = PGROUNDDOWN(srcva);
    80000d14:	7bfd                	lui	s7,0xfffff
    pa0 = walkaddr(pagetable, va0);
    if(pa0 == 0)
      return -1;
    n = PGSIZE - (srcva - va0);
    80000d16:	6a85                	lui	s5,0x1
    80000d18:	a015                	j	80000d3c <copyin+0x4a>
    if(n > len)
      n = len;
    memmove(dst, (void *)(pa0 + (srcva - va0)), n);
    80000d1a:	9562                	add	a0,a0,s8
    80000d1c:	0004861b          	sext.w	a2,s1
    80000d20:	412505b3          	sub	a1,a0,s2
    80000d24:	8552                	mv	a0,s4
    80000d26:	fffff097          	auipc	ra,0xfffff
    80000d2a:	584080e7          	jalr	1412(ra) # 800002aa <memmove>

    len -= n;
    80000d2e:	409989b3          	sub	s3,s3,s1
    dst += n;
    80000d32:	9a26                	add	s4,s4,s1
    srcva = va0 + PGSIZE;
    80000d34:	01590c33          	add	s8,s2,s5
  while(len > 0){
    80000d38:	02098263          	beqz	s3,80000d5c <copyin+0x6a>
    va0 = PGROUNDDOWN(srcva);
    80000d3c:	017c7933          	and	s2,s8,s7
    pa0 = walkaddr(pagetable, va0);
    80000d40:	85ca                	mv	a1,s2
    80000d42:	855a                	mv	a0,s6
    80000d44:	00000097          	auipc	ra,0x0
    80000d48:	894080e7          	jalr	-1900(ra) # 800005d8 <walkaddr>
    if(pa0 == 0)
    80000d4c:	cd01                	beqz	a0,80000d64 <copyin+0x72>
    n = PGSIZE - (srcva - va0);
    80000d4e:	418904b3          	sub	s1,s2,s8
    80000d52:	94d6                	add	s1,s1,s5
    if(n > len)
    80000d54:	fc99f3e3          	bgeu	s3,s1,80000d1a <copyin+0x28>
    80000d58:	84ce                	mv	s1,s3
    80000d5a:	b7c1                	j	80000d1a <copyin+0x28>
  }
  return 0;
    80000d5c:	4501                	li	a0,0
    80000d5e:	a021                	j	80000d66 <copyin+0x74>
    80000d60:	4501                	li	a0,0
}
    80000d62:	8082                	ret
      return -1;
    80000d64:	557d                	li	a0,-1
}
    80000d66:	60a6                	ld	ra,72(sp)
    80000d68:	6406                	ld	s0,64(sp)
    80000d6a:	74e2                	ld	s1,56(sp)
    80000d6c:	7942                	ld	s2,48(sp)
    80000d6e:	79a2                	ld	s3,40(sp)
    80000d70:	7a02                	ld	s4,32(sp)
    80000d72:	6ae2                	ld	s5,24(sp)
    80000d74:	6b42                	ld	s6,16(sp)
    80000d76:	6ba2                	ld	s7,8(sp)
    80000d78:	6c02                	ld	s8,0(sp)
    80000d7a:	6161                	addi	sp,sp,80
    80000d7c:	8082                	ret

0000000080000d7e <copyinstr>:
copyinstr(pagetable_t pagetable, char *dst, uint64 srcva, uint64 max)
{
  uint64 n, va0, pa0;
  int got_null = 0;

  while(got_null == 0 && max > 0){
    80000d7e:	c6c5                	beqz	a3,80000e26 <copyinstr+0xa8>
{
    80000d80:	715d                	addi	sp,sp,-80
    80000d82:	e486                	sd	ra,72(sp)
    80000d84:	e0a2                	sd	s0,64(sp)
    80000d86:	fc26                	sd	s1,56(sp)
    80000d88:	f84a                	sd	s2,48(sp)
    80000d8a:	f44e                	sd	s3,40(sp)
    80000d8c:	f052                	sd	s4,32(sp)
    80000d8e:	ec56                	sd	s5,24(sp)
    80000d90:	e85a                	sd	s6,16(sp)
    80000d92:	e45e                	sd	s7,8(sp)
    80000d94:	0880                	addi	s0,sp,80
    80000d96:	8a2a                	mv	s4,a0
    80000d98:	8b2e                	mv	s6,a1
    80000d9a:	8bb2                	mv	s7,a2
    80000d9c:	84b6                	mv	s1,a3
    va0 = PGROUNDDOWN(srcva);
    80000d9e:	7afd                	lui	s5,0xfffff
    pa0 = walkaddr(pagetable, va0);
    if(pa0 == 0)
      return -1;
    n = PGSIZE - (srcva - va0);
    80000da0:	6985                	lui	s3,0x1
    80000da2:	a035                	j	80000dce <copyinstr+0x50>
      n = max;

    char *p = (char *) (pa0 + (srcva - va0));
    while(n > 0){
      if(*p == '\0'){
        *dst = '\0';
    80000da4:	00078023          	sb	zero,0(a5) # 1000 <_entry-0x7ffff000>
    80000da8:	4785                	li	a5,1
      dst++;
    }

    srcva = va0 + PGSIZE;
  }
  if(got_null){
    80000daa:	0017b793          	seqz	a5,a5
    80000dae:	40f00533          	neg	a0,a5
    return 0;
  } else {
    return -1;
  }
}
    80000db2:	60a6                	ld	ra,72(sp)
    80000db4:	6406                	ld	s0,64(sp)
    80000db6:	74e2                	ld	s1,56(sp)
    80000db8:	7942                	ld	s2,48(sp)
    80000dba:	79a2                	ld	s3,40(sp)
    80000dbc:	7a02                	ld	s4,32(sp)
    80000dbe:	6ae2                	ld	s5,24(sp)
    80000dc0:	6b42                	ld	s6,16(sp)
    80000dc2:	6ba2                	ld	s7,8(sp)
    80000dc4:	6161                	addi	sp,sp,80
    80000dc6:	8082                	ret
    srcva = va0 + PGSIZE;
    80000dc8:	01390bb3          	add	s7,s2,s3
  while(got_null == 0 && max > 0){
    80000dcc:	c8a9                	beqz	s1,80000e1e <copyinstr+0xa0>
    va0 = PGROUNDDOWN(srcva);
    80000dce:	015bf933          	and	s2,s7,s5
    pa0 = walkaddr(pagetable, va0);
    80000dd2:	85ca                	mv	a1,s2
    80000dd4:	8552                	mv	a0,s4
    80000dd6:	00000097          	auipc	ra,0x0
    80000dda:	802080e7          	jalr	-2046(ra) # 800005d8 <walkaddr>
    if(pa0 == 0)
    80000dde:	c131                	beqz	a0,80000e22 <copyinstr+0xa4>
    n = PGSIZE - (srcva - va0);
    80000de0:	41790833          	sub	a6,s2,s7
    80000de4:	984e                	add	a6,a6,s3
    if(n > max)
    80000de6:	0104f363          	bgeu	s1,a6,80000dec <copyinstr+0x6e>
    80000dea:	8826                	mv	a6,s1
    char *p = (char *) (pa0 + (srcva - va0));
    80000dec:	955e                	add	a0,a0,s7
    80000dee:	41250533          	sub	a0,a0,s2
    while(n > 0){
    80000df2:	fc080be3          	beqz	a6,80000dc8 <copyinstr+0x4a>
    80000df6:	985a                	add	a6,a6,s6
    80000df8:	87da                	mv	a5,s6
      if(*p == '\0'){
    80000dfa:	41650633          	sub	a2,a0,s6
    80000dfe:	14fd                	addi	s1,s1,-1
    80000e00:	9b26                	add	s6,s6,s1
    80000e02:	00f60733          	add	a4,a2,a5
    80000e06:	00074703          	lbu	a4,0(a4)
    80000e0a:	df49                	beqz	a4,80000da4 <copyinstr+0x26>
        *dst = *p;
    80000e0c:	00e78023          	sb	a4,0(a5)
      --max;
    80000e10:	40fb04b3          	sub	s1,s6,a5
      dst++;
    80000e14:	0785                	addi	a5,a5,1
    while(n > 0){
    80000e16:	ff0796e3          	bne	a5,a6,80000e02 <copyinstr+0x84>
      dst++;
    80000e1a:	8b42                	mv	s6,a6
    80000e1c:	b775                	j	80000dc8 <copyinstr+0x4a>
    80000e1e:	4781                	li	a5,0
    80000e20:	b769                	j	80000daa <copyinstr+0x2c>
      return -1;
    80000e22:	557d                	li	a0,-1
    80000e24:	b779                	j	80000db2 <copyinstr+0x34>
  int got_null = 0;
    80000e26:	4781                	li	a5,0
  if(got_null){
    80000e28:	0017b793          	seqz	a5,a5
    80000e2c:	40f00533          	neg	a0,a5
}
    80000e30:	8082                	ret

0000000080000e32 <proc_mapstacks>:

// Allocate a page for each process's kernel stack.
// Map it high in memory, followed by an invalid
// guard page.
void
proc_mapstacks(pagetable_t kpgtbl) {
    80000e32:	7139                	addi	sp,sp,-64
    80000e34:	fc06                	sd	ra,56(sp)
    80000e36:	f822                	sd	s0,48(sp)
    80000e38:	f426                	sd	s1,40(sp)
    80000e3a:	f04a                	sd	s2,32(sp)
    80000e3c:	ec4e                	sd	s3,24(sp)
    80000e3e:	e852                	sd	s4,16(sp)
    80000e40:	e456                	sd	s5,8(sp)
    80000e42:	e05a                	sd	s6,0(sp)
    80000e44:	0080                	addi	s0,sp,64
    80000e46:	89aa                	mv	s3,a0
  struct proc *p;
  
  for(p = proc; p < &proc[NPROC]; p++) {
    80000e48:	00028497          	auipc	s1,0x28
    80000e4c:	63848493          	addi	s1,s1,1592 # 80029480 <proc>
    char *pa = kalloc();
    if(pa == 0)
      panic("kalloc");
    uint64 va = KSTACK((int) (p - proc));
    80000e50:	8b26                	mv	s6,s1
    80000e52:	00007a97          	auipc	s5,0x7
    80000e56:	1aea8a93          	addi	s5,s5,430 # 80008000 <etext>
    80000e5a:	04000937          	lui	s2,0x4000
    80000e5e:	197d                	addi	s2,s2,-1
    80000e60:	0932                	slli	s2,s2,0xc
  for(p = proc; p < &proc[NPROC]; p++) {
    80000e62:	0002ea17          	auipc	s4,0x2e
    80000e66:	01ea0a13          	addi	s4,s4,30 # 8002ee80 <tickslock>
    char *pa = kalloc();
    80000e6a:	fffff097          	auipc	ra,0xfffff
    80000e6e:	366080e7          	jalr	870(ra) # 800001d0 <kalloc>
    80000e72:	862a                	mv	a2,a0
    if(pa == 0)
    80000e74:	c131                	beqz	a0,80000eb8 <proc_mapstacks+0x86>
    uint64 va = KSTACK((int) (p - proc));
    80000e76:	416485b3          	sub	a1,s1,s6
    80000e7a:	858d                	srai	a1,a1,0x3
    80000e7c:	000ab783          	ld	a5,0(s5)
    80000e80:	02f585b3          	mul	a1,a1,a5
    80000e84:	2585                	addiw	a1,a1,1
    80000e86:	00d5959b          	slliw	a1,a1,0xd
    kvmmap(kpgtbl, va, (uint64)pa, PGSIZE, PTE_R | PTE_W);
    80000e8a:	4719                	li	a4,6
    80000e8c:	6685                	lui	a3,0x1
    80000e8e:	40b905b3          	sub	a1,s2,a1
    80000e92:	854e                	mv	a0,s3
    80000e94:	00000097          	auipc	ra,0x0
    80000e98:	848080e7          	jalr	-1976(ra) # 800006dc <kvmmap>
  for(p = proc; p < &proc[NPROC]; p++) {
    80000e9c:	16848493          	addi	s1,s1,360
    80000ea0:	fd4495e3          	bne	s1,s4,80000e6a <proc_mapstacks+0x38>
  }
}
    80000ea4:	70e2                	ld	ra,56(sp)
    80000ea6:	7442                	ld	s0,48(sp)
    80000ea8:	74a2                	ld	s1,40(sp)
    80000eaa:	7902                	ld	s2,32(sp)
    80000eac:	69e2                	ld	s3,24(sp)
    80000eae:	6a42                	ld	s4,16(sp)
    80000eb0:	6aa2                	ld	s5,8(sp)
    80000eb2:	6b02                	ld	s6,0(sp)
    80000eb4:	6121                	addi	sp,sp,64
    80000eb6:	8082                	ret
      panic("kalloc");
    80000eb8:	00007517          	auipc	a0,0x7
    80000ebc:	2d050513          	addi	a0,a0,720 # 80008188 <etext+0x188>
    80000ec0:	00005097          	auipc	ra,0x5
    80000ec4:	e88080e7          	jalr	-376(ra) # 80005d48 <panic>

0000000080000ec8 <procinit>:

// initialize the proc table at boot time.
void
procinit(void)
{
    80000ec8:	7139                	addi	sp,sp,-64
    80000eca:	fc06                	sd	ra,56(sp)
    80000ecc:	f822                	sd	s0,48(sp)
    80000ece:	f426                	sd	s1,40(sp)
    80000ed0:	f04a                	sd	s2,32(sp)
    80000ed2:	ec4e                	sd	s3,24(sp)
    80000ed4:	e852                	sd	s4,16(sp)
    80000ed6:	e456                	sd	s5,8(sp)
    80000ed8:	e05a                	sd	s6,0(sp)
    80000eda:	0080                	addi	s0,sp,64
  struct proc *p;
  
  initlock(&pid_lock, "nextpid");
    80000edc:	00007597          	auipc	a1,0x7
    80000ee0:	2b458593          	addi	a1,a1,692 # 80008190 <etext+0x190>
    80000ee4:	00028517          	auipc	a0,0x28
    80000ee8:	16c50513          	addi	a0,a0,364 # 80029050 <pid_lock>
    80000eec:	00005097          	auipc	ra,0x5
    80000ef0:	316080e7          	jalr	790(ra) # 80006202 <initlock>
  initlock(&wait_lock, "wait_lock");
    80000ef4:	00007597          	auipc	a1,0x7
    80000ef8:	2a458593          	addi	a1,a1,676 # 80008198 <etext+0x198>
    80000efc:	00028517          	auipc	a0,0x28
    80000f00:	16c50513          	addi	a0,a0,364 # 80029068 <wait_lock>
    80000f04:	00005097          	auipc	ra,0x5
    80000f08:	2fe080e7          	jalr	766(ra) # 80006202 <initlock>
  for(p = proc; p < &proc[NPROC]; p++) {
    80000f0c:	00028497          	auipc	s1,0x28
    80000f10:	57448493          	addi	s1,s1,1396 # 80029480 <proc>
      initlock(&p->lock, "proc");
    80000f14:	00007b17          	auipc	s6,0x7
    80000f18:	294b0b13          	addi	s6,s6,660 # 800081a8 <etext+0x1a8>
      p->kstack = KSTACK((int) (p - proc));
    80000f1c:	8aa6                	mv	s5,s1
    80000f1e:	00007a17          	auipc	s4,0x7
    80000f22:	0e2a0a13          	addi	s4,s4,226 # 80008000 <etext>
    80000f26:	04000937          	lui	s2,0x4000
    80000f2a:	197d                	addi	s2,s2,-1
    80000f2c:	0932                	slli	s2,s2,0xc
  for(p = proc; p < &proc[NPROC]; p++) {
    80000f2e:	0002e997          	auipc	s3,0x2e
    80000f32:	f5298993          	addi	s3,s3,-174 # 8002ee80 <tickslock>
      initlock(&p->lock, "proc");
    80000f36:	85da                	mv	a1,s6
    80000f38:	8526                	mv	a0,s1
    80000f3a:	00005097          	auipc	ra,0x5
    80000f3e:	2c8080e7          	jalr	712(ra) # 80006202 <initlock>
      p->kstack = KSTACK((int) (p - proc));
    80000f42:	415487b3          	sub	a5,s1,s5
    80000f46:	878d                	srai	a5,a5,0x3
    80000f48:	000a3703          	ld	a4,0(s4)
    80000f4c:	02e787b3          	mul	a5,a5,a4
    80000f50:	2785                	addiw	a5,a5,1
    80000f52:	00d7979b          	slliw	a5,a5,0xd
    80000f56:	40f907b3          	sub	a5,s2,a5
    80000f5a:	e0bc                	sd	a5,64(s1)
  for(p = proc; p < &proc[NPROC]; p++) {
    80000f5c:	16848493          	addi	s1,s1,360
    80000f60:	fd349be3          	bne	s1,s3,80000f36 <procinit+0x6e>
  }
}
    80000f64:	70e2                	ld	ra,56(sp)
    80000f66:	7442                	ld	s0,48(sp)
    80000f68:	74a2                	ld	s1,40(sp)
    80000f6a:	7902                	ld	s2,32(sp)
    80000f6c:	69e2                	ld	s3,24(sp)
    80000f6e:	6a42                	ld	s4,16(sp)
    80000f70:	6aa2                	ld	s5,8(sp)
    80000f72:	6b02                	ld	s6,0(sp)
    80000f74:	6121                	addi	sp,sp,64
    80000f76:	8082                	ret

0000000080000f78 <cpuid>:
// Must be called with interrupts disabled,
// to prevent race with process being moved
// to a different CPU.
int
cpuid()
{
    80000f78:	1141                	addi	sp,sp,-16
    80000f7a:	e422                	sd	s0,8(sp)
    80000f7c:	0800                	addi	s0,sp,16
  asm volatile("mv %0, tp" : "=r" (x) );
    80000f7e:	8512                	mv	a0,tp
  int id = r_tp();
  return id;
}
    80000f80:	2501                	sext.w	a0,a0
    80000f82:	6422                	ld	s0,8(sp)
    80000f84:	0141                	addi	sp,sp,16
    80000f86:	8082                	ret

0000000080000f88 <mycpu>:

// Return this CPU's cpu struct.
// Interrupts must be disabled.
struct cpu*
mycpu(void) {
    80000f88:	1141                	addi	sp,sp,-16
    80000f8a:	e422                	sd	s0,8(sp)
    80000f8c:	0800                	addi	s0,sp,16
    80000f8e:	8792                	mv	a5,tp
  int id = cpuid();
  struct cpu *c = &cpus[id];
    80000f90:	2781                	sext.w	a5,a5
    80000f92:	079e                	slli	a5,a5,0x7
  return c;
}
    80000f94:	00028517          	auipc	a0,0x28
    80000f98:	0ec50513          	addi	a0,a0,236 # 80029080 <cpus>
    80000f9c:	953e                	add	a0,a0,a5
    80000f9e:	6422                	ld	s0,8(sp)
    80000fa0:	0141                	addi	sp,sp,16
    80000fa2:	8082                	ret

0000000080000fa4 <myproc>:

// Return the current struct proc *, or zero if none.
struct proc*
myproc(void) {
    80000fa4:	1101                	addi	sp,sp,-32
    80000fa6:	ec06                	sd	ra,24(sp)
    80000fa8:	e822                	sd	s0,16(sp)
    80000faa:	e426                	sd	s1,8(sp)
    80000fac:	1000                	addi	s0,sp,32
  push_off();
    80000fae:	00005097          	auipc	ra,0x5
    80000fb2:	298080e7          	jalr	664(ra) # 80006246 <push_off>
    80000fb6:	8792                	mv	a5,tp
  struct cpu *c = mycpu();
  struct proc *p = c->proc;
    80000fb8:	2781                	sext.w	a5,a5
    80000fba:	079e                	slli	a5,a5,0x7
    80000fbc:	00028717          	auipc	a4,0x28
    80000fc0:	09470713          	addi	a4,a4,148 # 80029050 <pid_lock>
    80000fc4:	97ba                	add	a5,a5,a4
    80000fc6:	7b84                	ld	s1,48(a5)
  pop_off();
    80000fc8:	00005097          	auipc	ra,0x5
    80000fcc:	31e080e7          	jalr	798(ra) # 800062e6 <pop_off>
  return p;
}
    80000fd0:	8526                	mv	a0,s1
    80000fd2:	60e2                	ld	ra,24(sp)
    80000fd4:	6442                	ld	s0,16(sp)
    80000fd6:	64a2                	ld	s1,8(sp)
    80000fd8:	6105                	addi	sp,sp,32
    80000fda:	8082                	ret

0000000080000fdc <forkret>:

// A fork child's very first scheduling by scheduler()
// will swtch to forkret.
void
forkret(void)
{
    80000fdc:	1141                	addi	sp,sp,-16
    80000fde:	e406                	sd	ra,8(sp)
    80000fe0:	e022                	sd	s0,0(sp)
    80000fe2:	0800                	addi	s0,sp,16
  static int first = 1;

  // Still holding p->lock from scheduler.
  release(&myproc()->lock);
    80000fe4:	00000097          	auipc	ra,0x0
    80000fe8:	fc0080e7          	jalr	-64(ra) # 80000fa4 <myproc>
    80000fec:	00005097          	auipc	ra,0x5
    80000ff0:	35a080e7          	jalr	858(ra) # 80006346 <release>

  if (first) {
    80000ff4:	00008797          	auipc	a5,0x8
    80000ff8:	85c7a783          	lw	a5,-1956(a5) # 80008850 <first.1680>
    80000ffc:	eb89                	bnez	a5,8000100e <forkret+0x32>
    // be run from main().
    first = 0;
    fsinit(ROOTDEV);
  }

  usertrapret();
    80000ffe:	00001097          	auipc	ra,0x1
    80001002:	c0a080e7          	jalr	-1014(ra) # 80001c08 <usertrapret>
}
    80001006:	60a2                	ld	ra,8(sp)
    80001008:	6402                	ld	s0,0(sp)
    8000100a:	0141                	addi	sp,sp,16
    8000100c:	8082                	ret
    first = 0;
    8000100e:	00008797          	auipc	a5,0x8
    80001012:	8407a123          	sw	zero,-1982(a5) # 80008850 <first.1680>
    fsinit(ROOTDEV);
    80001016:	4505                	li	a0,1
    80001018:	00002097          	auipc	ra,0x2
    8000101c:	a06080e7          	jalr	-1530(ra) # 80002a1e <fsinit>
    80001020:	bff9                	j	80000ffe <forkret+0x22>

0000000080001022 <allocpid>:
allocpid() {
    80001022:	1101                	addi	sp,sp,-32
    80001024:	ec06                	sd	ra,24(sp)
    80001026:	e822                	sd	s0,16(sp)
    80001028:	e426                	sd	s1,8(sp)
    8000102a:	e04a                	sd	s2,0(sp)
    8000102c:	1000                	addi	s0,sp,32
  acquire(&pid_lock);
    8000102e:	00028917          	auipc	s2,0x28
    80001032:	02290913          	addi	s2,s2,34 # 80029050 <pid_lock>
    80001036:	854a                	mv	a0,s2
    80001038:	00005097          	auipc	ra,0x5
    8000103c:	25a080e7          	jalr	602(ra) # 80006292 <acquire>
  pid = nextpid;
    80001040:	00008797          	auipc	a5,0x8
    80001044:	81478793          	addi	a5,a5,-2028 # 80008854 <nextpid>
    80001048:	4384                	lw	s1,0(a5)
  nextpid = nextpid + 1;
    8000104a:	0014871b          	addiw	a4,s1,1
    8000104e:	c398                	sw	a4,0(a5)
  release(&pid_lock);
    80001050:	854a                	mv	a0,s2
    80001052:	00005097          	auipc	ra,0x5
    80001056:	2f4080e7          	jalr	756(ra) # 80006346 <release>
}
    8000105a:	8526                	mv	a0,s1
    8000105c:	60e2                	ld	ra,24(sp)
    8000105e:	6442                	ld	s0,16(sp)
    80001060:	64a2                	ld	s1,8(sp)
    80001062:	6902                	ld	s2,0(sp)
    80001064:	6105                	addi	sp,sp,32
    80001066:	8082                	ret

0000000080001068 <proc_pagetable>:
{
    80001068:	1101                	addi	sp,sp,-32
    8000106a:	ec06                	sd	ra,24(sp)
    8000106c:	e822                	sd	s0,16(sp)
    8000106e:	e426                	sd	s1,8(sp)
    80001070:	e04a                	sd	s2,0(sp)
    80001072:	1000                	addi	s0,sp,32
    80001074:	892a                	mv	s2,a0
  pagetable = uvmcreate();
    80001076:	00000097          	auipc	ra,0x0
    8000107a:	850080e7          	jalr	-1968(ra) # 800008c6 <uvmcreate>
    8000107e:	84aa                	mv	s1,a0
  if(pagetable == 0)
    80001080:	c121                	beqz	a0,800010c0 <proc_pagetable+0x58>
  if(mappages(pagetable, TRAMPOLINE, PGSIZE,
    80001082:	4729                	li	a4,10
    80001084:	00006697          	auipc	a3,0x6
    80001088:	f7c68693          	addi	a3,a3,-132 # 80007000 <_trampoline>
    8000108c:	6605                	lui	a2,0x1
    8000108e:	040005b7          	lui	a1,0x4000
    80001092:	15fd                	addi	a1,a1,-1
    80001094:	05b2                	slli	a1,a1,0xc
    80001096:	fffff097          	auipc	ra,0xfffff
    8000109a:	584080e7          	jalr	1412(ra) # 8000061a <mappages>
    8000109e:	02054863          	bltz	a0,800010ce <proc_pagetable+0x66>
  if(mappages(pagetable, TRAPFRAME, PGSIZE,
    800010a2:	4719                	li	a4,6
    800010a4:	05893683          	ld	a3,88(s2)
    800010a8:	6605                	lui	a2,0x1
    800010aa:	020005b7          	lui	a1,0x2000
    800010ae:	15fd                	addi	a1,a1,-1
    800010b0:	05b6                	slli	a1,a1,0xd
    800010b2:	8526                	mv	a0,s1
    800010b4:	fffff097          	auipc	ra,0xfffff
    800010b8:	566080e7          	jalr	1382(ra) # 8000061a <mappages>
    800010bc:	02054163          	bltz	a0,800010de <proc_pagetable+0x76>
}
    800010c0:	8526                	mv	a0,s1
    800010c2:	60e2                	ld	ra,24(sp)
    800010c4:	6442                	ld	s0,16(sp)
    800010c6:	64a2                	ld	s1,8(sp)
    800010c8:	6902                	ld	s2,0(sp)
    800010ca:	6105                	addi	sp,sp,32
    800010cc:	8082                	ret
    uvmfree(pagetable, 0);
    800010ce:	4581                	li	a1,0
    800010d0:	8526                	mv	a0,s1
    800010d2:	00000097          	auipc	ra,0x0
    800010d6:	9f0080e7          	jalr	-1552(ra) # 80000ac2 <uvmfree>
    return 0;
    800010da:	4481                	li	s1,0
    800010dc:	b7d5                	j	800010c0 <proc_pagetable+0x58>
    uvmunmap(pagetable, TRAMPOLINE, 1, 0);
    800010de:	4681                	li	a3,0
    800010e0:	4605                	li	a2,1
    800010e2:	040005b7          	lui	a1,0x4000
    800010e6:	15fd                	addi	a1,a1,-1
    800010e8:	05b2                	slli	a1,a1,0xc
    800010ea:	8526                	mv	a0,s1
    800010ec:	fffff097          	auipc	ra,0xfffff
    800010f0:	716080e7          	jalr	1814(ra) # 80000802 <uvmunmap>
    uvmfree(pagetable, 0);
    800010f4:	4581                	li	a1,0
    800010f6:	8526                	mv	a0,s1
    800010f8:	00000097          	auipc	ra,0x0
    800010fc:	9ca080e7          	jalr	-1590(ra) # 80000ac2 <uvmfree>
    return 0;
    80001100:	4481                	li	s1,0
    80001102:	bf7d                	j	800010c0 <proc_pagetable+0x58>

0000000080001104 <proc_freepagetable>:
{
    80001104:	1101                	addi	sp,sp,-32
    80001106:	ec06                	sd	ra,24(sp)
    80001108:	e822                	sd	s0,16(sp)
    8000110a:	e426                	sd	s1,8(sp)
    8000110c:	e04a                	sd	s2,0(sp)
    8000110e:	1000                	addi	s0,sp,32
    80001110:	84aa                	mv	s1,a0
    80001112:	892e                	mv	s2,a1
  uvmunmap(pagetable, TRAMPOLINE, 1, 0);
    80001114:	4681                	li	a3,0
    80001116:	4605                	li	a2,1
    80001118:	040005b7          	lui	a1,0x4000
    8000111c:	15fd                	addi	a1,a1,-1
    8000111e:	05b2                	slli	a1,a1,0xc
    80001120:	fffff097          	auipc	ra,0xfffff
    80001124:	6e2080e7          	jalr	1762(ra) # 80000802 <uvmunmap>
  uvmunmap(pagetable, TRAPFRAME, 1, 0);
    80001128:	4681                	li	a3,0
    8000112a:	4605                	li	a2,1
    8000112c:	020005b7          	lui	a1,0x2000
    80001130:	15fd                	addi	a1,a1,-1
    80001132:	05b6                	slli	a1,a1,0xd
    80001134:	8526                	mv	a0,s1
    80001136:	fffff097          	auipc	ra,0xfffff
    8000113a:	6cc080e7          	jalr	1740(ra) # 80000802 <uvmunmap>
  uvmfree(pagetable, sz);
    8000113e:	85ca                	mv	a1,s2
    80001140:	8526                	mv	a0,s1
    80001142:	00000097          	auipc	ra,0x0
    80001146:	980080e7          	jalr	-1664(ra) # 80000ac2 <uvmfree>
}
    8000114a:	60e2                	ld	ra,24(sp)
    8000114c:	6442                	ld	s0,16(sp)
    8000114e:	64a2                	ld	s1,8(sp)
    80001150:	6902                	ld	s2,0(sp)
    80001152:	6105                	addi	sp,sp,32
    80001154:	8082                	ret

0000000080001156 <freeproc>:
{
    80001156:	1101                	addi	sp,sp,-32
    80001158:	ec06                	sd	ra,24(sp)
    8000115a:	e822                	sd	s0,16(sp)
    8000115c:	e426                	sd	s1,8(sp)
    8000115e:	1000                	addi	s0,sp,32
    80001160:	84aa                	mv	s1,a0
  if(p->trapframe)
    80001162:	6d28                	ld	a0,88(a0)
    80001164:	c509                	beqz	a0,8000116e <freeproc+0x18>
    kfree((void*)p->trapframe);
    80001166:	fffff097          	auipc	ra,0xfffff
    8000116a:	f06080e7          	jalr	-250(ra) # 8000006c <kfree>
  p->trapframe = 0;
    8000116e:	0404bc23          	sd	zero,88(s1)
  if(p->pagetable)
    80001172:	68a8                	ld	a0,80(s1)
    80001174:	c511                	beqz	a0,80001180 <freeproc+0x2a>
    proc_freepagetable(p->pagetable, p->sz);
    80001176:	64ac                	ld	a1,72(s1)
    80001178:	00000097          	auipc	ra,0x0
    8000117c:	f8c080e7          	jalr	-116(ra) # 80001104 <proc_freepagetable>
  p->pagetable = 0;
    80001180:	0404b823          	sd	zero,80(s1)
  p->sz = 0;
    80001184:	0404b423          	sd	zero,72(s1)
  p->pid = 0;
    80001188:	0204a823          	sw	zero,48(s1)
  p->parent = 0;
    8000118c:	0204bc23          	sd	zero,56(s1)
  p->name[0] = 0;
    80001190:	14048c23          	sb	zero,344(s1)
  p->chan = 0;
    80001194:	0204b023          	sd	zero,32(s1)
  p->killed = 0;
    80001198:	0204a423          	sw	zero,40(s1)
  p->xstate = 0;
    8000119c:	0204a623          	sw	zero,44(s1)
  p->state = UNUSED;
    800011a0:	0004ac23          	sw	zero,24(s1)
}
    800011a4:	60e2                	ld	ra,24(sp)
    800011a6:	6442                	ld	s0,16(sp)
    800011a8:	64a2                	ld	s1,8(sp)
    800011aa:	6105                	addi	sp,sp,32
    800011ac:	8082                	ret

00000000800011ae <allocproc>:
{
    800011ae:	1101                	addi	sp,sp,-32
    800011b0:	ec06                	sd	ra,24(sp)
    800011b2:	e822                	sd	s0,16(sp)
    800011b4:	e426                	sd	s1,8(sp)
    800011b6:	e04a                	sd	s2,0(sp)
    800011b8:	1000                	addi	s0,sp,32
  for(p = proc; p < &proc[NPROC]; p++) {
    800011ba:	00028497          	auipc	s1,0x28
    800011be:	2c648493          	addi	s1,s1,710 # 80029480 <proc>
    800011c2:	0002e917          	auipc	s2,0x2e
    800011c6:	cbe90913          	addi	s2,s2,-834 # 8002ee80 <tickslock>
    acquire(&p->lock);
    800011ca:	8526                	mv	a0,s1
    800011cc:	00005097          	auipc	ra,0x5
    800011d0:	0c6080e7          	jalr	198(ra) # 80006292 <acquire>
    if(p->state == UNUSED) {
    800011d4:	4c9c                	lw	a5,24(s1)
    800011d6:	cf81                	beqz	a5,800011ee <allocproc+0x40>
      release(&p->lock);
    800011d8:	8526                	mv	a0,s1
    800011da:	00005097          	auipc	ra,0x5
    800011de:	16c080e7          	jalr	364(ra) # 80006346 <release>
  for(p = proc; p < &proc[NPROC]; p++) {
    800011e2:	16848493          	addi	s1,s1,360
    800011e6:	ff2492e3          	bne	s1,s2,800011ca <allocproc+0x1c>
  return 0;
    800011ea:	4481                	li	s1,0
    800011ec:	a889                	j	8000123e <allocproc+0x90>
  p->pid = allocpid();
    800011ee:	00000097          	auipc	ra,0x0
    800011f2:	e34080e7          	jalr	-460(ra) # 80001022 <allocpid>
    800011f6:	d888                	sw	a0,48(s1)
  p->state = USED;
    800011f8:	4785                	li	a5,1
    800011fa:	cc9c                	sw	a5,24(s1)
  if((p->trapframe = (struct trapframe *)kalloc()) == 0){
    800011fc:	fffff097          	auipc	ra,0xfffff
    80001200:	fd4080e7          	jalr	-44(ra) # 800001d0 <kalloc>
    80001204:	892a                	mv	s2,a0
    80001206:	eca8                	sd	a0,88(s1)
    80001208:	c131                	beqz	a0,8000124c <allocproc+0x9e>
  p->pagetable = proc_pagetable(p);
    8000120a:	8526                	mv	a0,s1
    8000120c:	00000097          	auipc	ra,0x0
    80001210:	e5c080e7          	jalr	-420(ra) # 80001068 <proc_pagetable>
    80001214:	892a                	mv	s2,a0
    80001216:	e8a8                	sd	a0,80(s1)
  if(p->pagetable == 0){
    80001218:	c531                	beqz	a0,80001264 <allocproc+0xb6>
  memset(&p->context, 0, sizeof(p->context));
    8000121a:	07000613          	li	a2,112
    8000121e:	4581                	li	a1,0
    80001220:	06048513          	addi	a0,s1,96
    80001224:	fffff097          	auipc	ra,0xfffff
    80001228:	026080e7          	jalr	38(ra) # 8000024a <memset>
  p->context.ra = (uint64)forkret;
    8000122c:	00000797          	auipc	a5,0x0
    80001230:	db078793          	addi	a5,a5,-592 # 80000fdc <forkret>
    80001234:	f0bc                	sd	a5,96(s1)
  p->context.sp = p->kstack + PGSIZE;
    80001236:	60bc                	ld	a5,64(s1)
    80001238:	6705                	lui	a4,0x1
    8000123a:	97ba                	add	a5,a5,a4
    8000123c:	f4bc                	sd	a5,104(s1)
}
    8000123e:	8526                	mv	a0,s1
    80001240:	60e2                	ld	ra,24(sp)
    80001242:	6442                	ld	s0,16(sp)
    80001244:	64a2                	ld	s1,8(sp)
    80001246:	6902                	ld	s2,0(sp)
    80001248:	6105                	addi	sp,sp,32
    8000124a:	8082                	ret
    freeproc(p);
    8000124c:	8526                	mv	a0,s1
    8000124e:	00000097          	auipc	ra,0x0
    80001252:	f08080e7          	jalr	-248(ra) # 80001156 <freeproc>
    release(&p->lock);
    80001256:	8526                	mv	a0,s1
    80001258:	00005097          	auipc	ra,0x5
    8000125c:	0ee080e7          	jalr	238(ra) # 80006346 <release>
    return 0;
    80001260:	84ca                	mv	s1,s2
    80001262:	bff1                	j	8000123e <allocproc+0x90>
    freeproc(p);
    80001264:	8526                	mv	a0,s1
    80001266:	00000097          	auipc	ra,0x0
    8000126a:	ef0080e7          	jalr	-272(ra) # 80001156 <freeproc>
    release(&p->lock);
    8000126e:	8526                	mv	a0,s1
    80001270:	00005097          	auipc	ra,0x5
    80001274:	0d6080e7          	jalr	214(ra) # 80006346 <release>
    return 0;
    80001278:	84ca                	mv	s1,s2
    8000127a:	b7d1                	j	8000123e <allocproc+0x90>

000000008000127c <userinit>:
{
    8000127c:	1101                	addi	sp,sp,-32
    8000127e:	ec06                	sd	ra,24(sp)
    80001280:	e822                	sd	s0,16(sp)
    80001282:	e426                	sd	s1,8(sp)
    80001284:	1000                	addi	s0,sp,32
  p = allocproc();
    80001286:	00000097          	auipc	ra,0x0
    8000128a:	f28080e7          	jalr	-216(ra) # 800011ae <allocproc>
    8000128e:	84aa                	mv	s1,a0
  initproc = p;
    80001290:	00008797          	auipc	a5,0x8
    80001294:	d8a7b023          	sd	a0,-640(a5) # 80009010 <initproc>
  uvminit(p->pagetable, initcode, sizeof(initcode));
    80001298:	03400613          	li	a2,52
    8000129c:	00007597          	auipc	a1,0x7
    800012a0:	5c458593          	addi	a1,a1,1476 # 80008860 <initcode>
    800012a4:	6928                	ld	a0,80(a0)
    800012a6:	fffff097          	auipc	ra,0xfffff
    800012aa:	64e080e7          	jalr	1614(ra) # 800008f4 <uvminit>
  p->sz = PGSIZE;
    800012ae:	6785                	lui	a5,0x1
    800012b0:	e4bc                	sd	a5,72(s1)
  p->trapframe->epc = 0;      // user program counter
    800012b2:	6cb8                	ld	a4,88(s1)
    800012b4:	00073c23          	sd	zero,24(a4) # 1018 <_entry-0x7fffefe8>
  p->trapframe->sp = PGSIZE;  // user stack pointer
    800012b8:	6cb8                	ld	a4,88(s1)
    800012ba:	fb1c                	sd	a5,48(a4)
  safestrcpy(p->name, "initcode", sizeof(p->name));
    800012bc:	4641                	li	a2,16
    800012be:	00007597          	auipc	a1,0x7
    800012c2:	ef258593          	addi	a1,a1,-270 # 800081b0 <etext+0x1b0>
    800012c6:	15848513          	addi	a0,s1,344
    800012ca:	fffff097          	auipc	ra,0xfffff
    800012ce:	0d2080e7          	jalr	210(ra) # 8000039c <safestrcpy>
  p->cwd = namei("/");
    800012d2:	00007517          	auipc	a0,0x7
    800012d6:	eee50513          	addi	a0,a0,-274 # 800081c0 <etext+0x1c0>
    800012da:	00002097          	auipc	ra,0x2
    800012de:	172080e7          	jalr	370(ra) # 8000344c <namei>
    800012e2:	14a4b823          	sd	a0,336(s1)
  p->state = RUNNABLE;
    800012e6:	478d                	li	a5,3
    800012e8:	cc9c                	sw	a5,24(s1)
  release(&p->lock);
    800012ea:	8526                	mv	a0,s1
    800012ec:	00005097          	auipc	ra,0x5
    800012f0:	05a080e7          	jalr	90(ra) # 80006346 <release>
}
    800012f4:	60e2                	ld	ra,24(sp)
    800012f6:	6442                	ld	s0,16(sp)
    800012f8:	64a2                	ld	s1,8(sp)
    800012fa:	6105                	addi	sp,sp,32
    800012fc:	8082                	ret

00000000800012fe <growproc>:
{
    800012fe:	1101                	addi	sp,sp,-32
    80001300:	ec06                	sd	ra,24(sp)
    80001302:	e822                	sd	s0,16(sp)
    80001304:	e426                	sd	s1,8(sp)
    80001306:	e04a                	sd	s2,0(sp)
    80001308:	1000                	addi	s0,sp,32
    8000130a:	84aa                	mv	s1,a0
  struct proc *p = myproc();
    8000130c:	00000097          	auipc	ra,0x0
    80001310:	c98080e7          	jalr	-872(ra) # 80000fa4 <myproc>
    80001314:	892a                	mv	s2,a0
  sz = p->sz;
    80001316:	652c                	ld	a1,72(a0)
    80001318:	0005861b          	sext.w	a2,a1
  if(n > 0){
    8000131c:	00904f63          	bgtz	s1,8000133a <growproc+0x3c>
  } else if(n < 0){
    80001320:	0204cc63          	bltz	s1,80001358 <growproc+0x5a>
  p->sz = sz;
    80001324:	1602                	slli	a2,a2,0x20
    80001326:	9201                	srli	a2,a2,0x20
    80001328:	04c93423          	sd	a2,72(s2)
  return 0;
    8000132c:	4501                	li	a0,0
}
    8000132e:	60e2                	ld	ra,24(sp)
    80001330:	6442                	ld	s0,16(sp)
    80001332:	64a2                	ld	s1,8(sp)
    80001334:	6902                	ld	s2,0(sp)
    80001336:	6105                	addi	sp,sp,32
    80001338:	8082                	ret
    if((sz = uvmalloc(p->pagetable, sz, sz + n)) == 0) {
    8000133a:	9e25                	addw	a2,a2,s1
    8000133c:	1602                	slli	a2,a2,0x20
    8000133e:	9201                	srli	a2,a2,0x20
    80001340:	1582                	slli	a1,a1,0x20
    80001342:	9181                	srli	a1,a1,0x20
    80001344:	6928                	ld	a0,80(a0)
    80001346:	fffff097          	auipc	ra,0xfffff
    8000134a:	668080e7          	jalr	1640(ra) # 800009ae <uvmalloc>
    8000134e:	0005061b          	sext.w	a2,a0
    80001352:	fa69                	bnez	a2,80001324 <growproc+0x26>
      return -1;
    80001354:	557d                	li	a0,-1
    80001356:	bfe1                	j	8000132e <growproc+0x30>
    sz = uvmdealloc(p->pagetable, sz, sz + n);
    80001358:	9e25                	addw	a2,a2,s1
    8000135a:	1602                	slli	a2,a2,0x20
    8000135c:	9201                	srli	a2,a2,0x20
    8000135e:	1582                	slli	a1,a1,0x20
    80001360:	9181                	srli	a1,a1,0x20
    80001362:	6928                	ld	a0,80(a0)
    80001364:	fffff097          	auipc	ra,0xfffff
    80001368:	602080e7          	jalr	1538(ra) # 80000966 <uvmdealloc>
    8000136c:	0005061b          	sext.w	a2,a0
    80001370:	bf55                	j	80001324 <growproc+0x26>

0000000080001372 <fork>:
{
    80001372:	7179                	addi	sp,sp,-48
    80001374:	f406                	sd	ra,40(sp)
    80001376:	f022                	sd	s0,32(sp)
    80001378:	ec26                	sd	s1,24(sp)
    8000137a:	e84a                	sd	s2,16(sp)
    8000137c:	e44e                	sd	s3,8(sp)
    8000137e:	e052                	sd	s4,0(sp)
    80001380:	1800                	addi	s0,sp,48
  struct proc *p = myproc();
    80001382:	00000097          	auipc	ra,0x0
    80001386:	c22080e7          	jalr	-990(ra) # 80000fa4 <myproc>
    8000138a:	892a                	mv	s2,a0
  if((np = allocproc()) == 0){
    8000138c:	00000097          	auipc	ra,0x0
    80001390:	e22080e7          	jalr	-478(ra) # 800011ae <allocproc>
    80001394:	10050b63          	beqz	a0,800014aa <fork+0x138>
    80001398:	89aa                	mv	s3,a0
  if(uvmcopy(p->pagetable, np->pagetable, p->sz) < 0){
    8000139a:	04893603          	ld	a2,72(s2)
    8000139e:	692c                	ld	a1,80(a0)
    800013a0:	05093503          	ld	a0,80(s2)
    800013a4:	fffff097          	auipc	ra,0xfffff
    800013a8:	756080e7          	jalr	1878(ra) # 80000afa <uvmcopy>
    800013ac:	04054663          	bltz	a0,800013f8 <fork+0x86>
  np->sz = p->sz;
    800013b0:	04893783          	ld	a5,72(s2)
    800013b4:	04f9b423          	sd	a5,72(s3)
  *(np->trapframe) = *(p->trapframe);
    800013b8:	05893683          	ld	a3,88(s2)
    800013bc:	87b6                	mv	a5,a3
    800013be:	0589b703          	ld	a4,88(s3)
    800013c2:	12068693          	addi	a3,a3,288
    800013c6:	0007b803          	ld	a6,0(a5) # 1000 <_entry-0x7ffff000>
    800013ca:	6788                	ld	a0,8(a5)
    800013cc:	6b8c                	ld	a1,16(a5)
    800013ce:	6f90                	ld	a2,24(a5)
    800013d0:	01073023          	sd	a6,0(a4)
    800013d4:	e708                	sd	a0,8(a4)
    800013d6:	eb0c                	sd	a1,16(a4)
    800013d8:	ef10                	sd	a2,24(a4)
    800013da:	02078793          	addi	a5,a5,32
    800013de:	02070713          	addi	a4,a4,32
    800013e2:	fed792e3          	bne	a5,a3,800013c6 <fork+0x54>
  np->trapframe->a0 = 0;
    800013e6:	0589b783          	ld	a5,88(s3)
    800013ea:	0607b823          	sd	zero,112(a5)
    800013ee:	0d000493          	li	s1,208
  for(i = 0; i < NOFILE; i++)
    800013f2:	15000a13          	li	s4,336
    800013f6:	a03d                	j	80001424 <fork+0xb2>
    freeproc(np);
    800013f8:	854e                	mv	a0,s3
    800013fa:	00000097          	auipc	ra,0x0
    800013fe:	d5c080e7          	jalr	-676(ra) # 80001156 <freeproc>
    release(&np->lock);
    80001402:	854e                	mv	a0,s3
    80001404:	00005097          	auipc	ra,0x5
    80001408:	f42080e7          	jalr	-190(ra) # 80006346 <release>
    return -1;
    8000140c:	5a7d                	li	s4,-1
    8000140e:	a069                	j	80001498 <fork+0x126>
      np->ofile[i] = filedup(p->ofile[i]);
    80001410:	00002097          	auipc	ra,0x2
    80001414:	6d2080e7          	jalr	1746(ra) # 80003ae2 <filedup>
    80001418:	009987b3          	add	a5,s3,s1
    8000141c:	e388                	sd	a0,0(a5)
  for(i = 0; i < NOFILE; i++)
    8000141e:	04a1                	addi	s1,s1,8
    80001420:	01448763          	beq	s1,s4,8000142e <fork+0xbc>
    if(p->ofile[i])
    80001424:	009907b3          	add	a5,s2,s1
    80001428:	6388                	ld	a0,0(a5)
    8000142a:	f17d                	bnez	a0,80001410 <fork+0x9e>
    8000142c:	bfcd                	j	8000141e <fork+0xac>
  np->cwd = idup(p->cwd);
    8000142e:	15093503          	ld	a0,336(s2)
    80001432:	00002097          	auipc	ra,0x2
    80001436:	826080e7          	jalr	-2010(ra) # 80002c58 <idup>
    8000143a:	14a9b823          	sd	a0,336(s3)
  safestrcpy(np->name, p->name, sizeof(p->name));
    8000143e:	4641                	li	a2,16
    80001440:	15890593          	addi	a1,s2,344
    80001444:	15898513          	addi	a0,s3,344
    80001448:	fffff097          	auipc	ra,0xfffff
    8000144c:	f54080e7          	jalr	-172(ra) # 8000039c <safestrcpy>
  pid = np->pid;
    80001450:	0309aa03          	lw	s4,48(s3)
  release(&np->lock);
    80001454:	854e                	mv	a0,s3
    80001456:	00005097          	auipc	ra,0x5
    8000145a:	ef0080e7          	jalr	-272(ra) # 80006346 <release>
  acquire(&wait_lock);
    8000145e:	00028497          	auipc	s1,0x28
    80001462:	c0a48493          	addi	s1,s1,-1014 # 80029068 <wait_lock>
    80001466:	8526                	mv	a0,s1
    80001468:	00005097          	auipc	ra,0x5
    8000146c:	e2a080e7          	jalr	-470(ra) # 80006292 <acquire>
  np->parent = p;
    80001470:	0329bc23          	sd	s2,56(s3)
  release(&wait_lock);
    80001474:	8526                	mv	a0,s1
    80001476:	00005097          	auipc	ra,0x5
    8000147a:	ed0080e7          	jalr	-304(ra) # 80006346 <release>
  acquire(&np->lock);
    8000147e:	854e                	mv	a0,s3
    80001480:	00005097          	auipc	ra,0x5
    80001484:	e12080e7          	jalr	-494(ra) # 80006292 <acquire>
  np->state = RUNNABLE;
    80001488:	478d                	li	a5,3
    8000148a:	00f9ac23          	sw	a5,24(s3)
  release(&np->lock);
    8000148e:	854e                	mv	a0,s3
    80001490:	00005097          	auipc	ra,0x5
    80001494:	eb6080e7          	jalr	-330(ra) # 80006346 <release>
}
    80001498:	8552                	mv	a0,s4
    8000149a:	70a2                	ld	ra,40(sp)
    8000149c:	7402                	ld	s0,32(sp)
    8000149e:	64e2                	ld	s1,24(sp)
    800014a0:	6942                	ld	s2,16(sp)
    800014a2:	69a2                	ld	s3,8(sp)
    800014a4:	6a02                	ld	s4,0(sp)
    800014a6:	6145                	addi	sp,sp,48
    800014a8:	8082                	ret
    return -1;
    800014aa:	5a7d                	li	s4,-1
    800014ac:	b7f5                	j	80001498 <fork+0x126>

00000000800014ae <scheduler>:
{
    800014ae:	7139                	addi	sp,sp,-64
    800014b0:	fc06                	sd	ra,56(sp)
    800014b2:	f822                	sd	s0,48(sp)
    800014b4:	f426                	sd	s1,40(sp)
    800014b6:	f04a                	sd	s2,32(sp)
    800014b8:	ec4e                	sd	s3,24(sp)
    800014ba:	e852                	sd	s4,16(sp)
    800014bc:	e456                	sd	s5,8(sp)
    800014be:	e05a                	sd	s6,0(sp)
    800014c0:	0080                	addi	s0,sp,64
    800014c2:	8792                	mv	a5,tp
  int id = r_tp();
    800014c4:	2781                	sext.w	a5,a5
  c->proc = 0;
    800014c6:	00779a93          	slli	s5,a5,0x7
    800014ca:	00028717          	auipc	a4,0x28
    800014ce:	b8670713          	addi	a4,a4,-1146 # 80029050 <pid_lock>
    800014d2:	9756                	add	a4,a4,s5
    800014d4:	02073823          	sd	zero,48(a4)
        swtch(&c->context, &p->context);
    800014d8:	00028717          	auipc	a4,0x28
    800014dc:	bb070713          	addi	a4,a4,-1104 # 80029088 <cpus+0x8>
    800014e0:	9aba                	add	s5,s5,a4
      if(p->state == RUNNABLE) {
    800014e2:	498d                	li	s3,3
        p->state = RUNNING;
    800014e4:	4b11                	li	s6,4
        c->proc = p;
    800014e6:	079e                	slli	a5,a5,0x7
    800014e8:	00028a17          	auipc	s4,0x28
    800014ec:	b68a0a13          	addi	s4,s4,-1176 # 80029050 <pid_lock>
    800014f0:	9a3e                	add	s4,s4,a5
    for(p = proc; p < &proc[NPROC]; p++) {
    800014f2:	0002e917          	auipc	s2,0x2e
    800014f6:	98e90913          	addi	s2,s2,-1650 # 8002ee80 <tickslock>
  asm volatile("csrr %0, sstatus" : "=r" (x) );
    800014fa:	100027f3          	csrr	a5,sstatus
  w_sstatus(r_sstatus() | SSTATUS_SIE);
    800014fe:	0027e793          	ori	a5,a5,2
  asm volatile("csrw sstatus, %0" : : "r" (x));
    80001502:	10079073          	csrw	sstatus,a5
    80001506:	00028497          	auipc	s1,0x28
    8000150a:	f7a48493          	addi	s1,s1,-134 # 80029480 <proc>
    8000150e:	a03d                	j	8000153c <scheduler+0x8e>
        p->state = RUNNING;
    80001510:	0164ac23          	sw	s6,24(s1)
        c->proc = p;
    80001514:	029a3823          	sd	s1,48(s4)
        swtch(&c->context, &p->context);
    80001518:	06048593          	addi	a1,s1,96
    8000151c:	8556                	mv	a0,s5
    8000151e:	00000097          	auipc	ra,0x0
    80001522:	640080e7          	jalr	1600(ra) # 80001b5e <swtch>
        c->proc = 0;
    80001526:	020a3823          	sd	zero,48(s4)
      release(&p->lock);
    8000152a:	8526                	mv	a0,s1
    8000152c:	00005097          	auipc	ra,0x5
    80001530:	e1a080e7          	jalr	-486(ra) # 80006346 <release>
    for(p = proc; p < &proc[NPROC]; p++) {
    80001534:	16848493          	addi	s1,s1,360
    80001538:	fd2481e3          	beq	s1,s2,800014fa <scheduler+0x4c>
      acquire(&p->lock);
    8000153c:	8526                	mv	a0,s1
    8000153e:	00005097          	auipc	ra,0x5
    80001542:	d54080e7          	jalr	-684(ra) # 80006292 <acquire>
      if(p->state == RUNNABLE) {
    80001546:	4c9c                	lw	a5,24(s1)
    80001548:	ff3791e3          	bne	a5,s3,8000152a <scheduler+0x7c>
    8000154c:	b7d1                	j	80001510 <scheduler+0x62>

000000008000154e <sched>:
{
    8000154e:	7179                	addi	sp,sp,-48
    80001550:	f406                	sd	ra,40(sp)
    80001552:	f022                	sd	s0,32(sp)
    80001554:	ec26                	sd	s1,24(sp)
    80001556:	e84a                	sd	s2,16(sp)
    80001558:	e44e                	sd	s3,8(sp)
    8000155a:	1800                	addi	s0,sp,48
  struct proc *p = myproc();
    8000155c:	00000097          	auipc	ra,0x0
    80001560:	a48080e7          	jalr	-1464(ra) # 80000fa4 <myproc>
    80001564:	84aa                	mv	s1,a0
  if(!holding(&p->lock))
    80001566:	00005097          	auipc	ra,0x5
    8000156a:	cb2080e7          	jalr	-846(ra) # 80006218 <holding>
    8000156e:	c93d                	beqz	a0,800015e4 <sched+0x96>
  asm volatile("mv %0, tp" : "=r" (x) );
    80001570:	8792                	mv	a5,tp
  if(mycpu()->noff != 1)
    80001572:	2781                	sext.w	a5,a5
    80001574:	079e                	slli	a5,a5,0x7
    80001576:	00028717          	auipc	a4,0x28
    8000157a:	ada70713          	addi	a4,a4,-1318 # 80029050 <pid_lock>
    8000157e:	97ba                	add	a5,a5,a4
    80001580:	0a87a703          	lw	a4,168(a5)
    80001584:	4785                	li	a5,1
    80001586:	06f71763          	bne	a4,a5,800015f4 <sched+0xa6>
  if(p->state == RUNNING)
    8000158a:	4c98                	lw	a4,24(s1)
    8000158c:	4791                	li	a5,4
    8000158e:	06f70b63          	beq	a4,a5,80001604 <sched+0xb6>
  asm volatile("csrr %0, sstatus" : "=r" (x) );
    80001592:	100027f3          	csrr	a5,sstatus
  return (x & SSTATUS_SIE) != 0;
    80001596:	8b89                	andi	a5,a5,2
  if(intr_get())
    80001598:	efb5                	bnez	a5,80001614 <sched+0xc6>
  asm volatile("mv %0, tp" : "=r" (x) );
    8000159a:	8792                	mv	a5,tp
  intena = mycpu()->intena;
    8000159c:	00028917          	auipc	s2,0x28
    800015a0:	ab490913          	addi	s2,s2,-1356 # 80029050 <pid_lock>
    800015a4:	2781                	sext.w	a5,a5
    800015a6:	079e                	slli	a5,a5,0x7
    800015a8:	97ca                	add	a5,a5,s2
    800015aa:	0ac7a983          	lw	s3,172(a5)
    800015ae:	8792                	mv	a5,tp
  swtch(&p->context, &mycpu()->context);
    800015b0:	2781                	sext.w	a5,a5
    800015b2:	079e                	slli	a5,a5,0x7
    800015b4:	00028597          	auipc	a1,0x28
    800015b8:	ad458593          	addi	a1,a1,-1324 # 80029088 <cpus+0x8>
    800015bc:	95be                	add	a1,a1,a5
    800015be:	06048513          	addi	a0,s1,96
    800015c2:	00000097          	auipc	ra,0x0
    800015c6:	59c080e7          	jalr	1436(ra) # 80001b5e <swtch>
    800015ca:	8792                	mv	a5,tp
  mycpu()->intena = intena;
    800015cc:	2781                	sext.w	a5,a5
    800015ce:	079e                	slli	a5,a5,0x7
    800015d0:	97ca                	add	a5,a5,s2
    800015d2:	0b37a623          	sw	s3,172(a5)
}
    800015d6:	70a2                	ld	ra,40(sp)
    800015d8:	7402                	ld	s0,32(sp)
    800015da:	64e2                	ld	s1,24(sp)
    800015dc:	6942                	ld	s2,16(sp)
    800015de:	69a2                	ld	s3,8(sp)
    800015e0:	6145                	addi	sp,sp,48
    800015e2:	8082                	ret
    panic("sched p->lock");
    800015e4:	00007517          	auipc	a0,0x7
    800015e8:	be450513          	addi	a0,a0,-1052 # 800081c8 <etext+0x1c8>
    800015ec:	00004097          	auipc	ra,0x4
    800015f0:	75c080e7          	jalr	1884(ra) # 80005d48 <panic>
    panic("sched locks");
    800015f4:	00007517          	auipc	a0,0x7
    800015f8:	be450513          	addi	a0,a0,-1052 # 800081d8 <etext+0x1d8>
    800015fc:	00004097          	auipc	ra,0x4
    80001600:	74c080e7          	jalr	1868(ra) # 80005d48 <panic>
    panic("sched running");
    80001604:	00007517          	auipc	a0,0x7
    80001608:	be450513          	addi	a0,a0,-1052 # 800081e8 <etext+0x1e8>
    8000160c:	00004097          	auipc	ra,0x4
    80001610:	73c080e7          	jalr	1852(ra) # 80005d48 <panic>
    panic("sched interruptible");
    80001614:	00007517          	auipc	a0,0x7
    80001618:	be450513          	addi	a0,a0,-1052 # 800081f8 <etext+0x1f8>
    8000161c:	00004097          	auipc	ra,0x4
    80001620:	72c080e7          	jalr	1836(ra) # 80005d48 <panic>

0000000080001624 <yield>:
{
    80001624:	1101                	addi	sp,sp,-32
    80001626:	ec06                	sd	ra,24(sp)
    80001628:	e822                	sd	s0,16(sp)
    8000162a:	e426                	sd	s1,8(sp)
    8000162c:	1000                	addi	s0,sp,32
  struct proc *p = myproc();
    8000162e:	00000097          	auipc	ra,0x0
    80001632:	976080e7          	jalr	-1674(ra) # 80000fa4 <myproc>
    80001636:	84aa                	mv	s1,a0
  acquire(&p->lock);
    80001638:	00005097          	auipc	ra,0x5
    8000163c:	c5a080e7          	jalr	-934(ra) # 80006292 <acquire>
  p->state = RUNNABLE;
    80001640:	478d                	li	a5,3
    80001642:	cc9c                	sw	a5,24(s1)
  sched();
    80001644:	00000097          	auipc	ra,0x0
    80001648:	f0a080e7          	jalr	-246(ra) # 8000154e <sched>
  release(&p->lock);
    8000164c:	8526                	mv	a0,s1
    8000164e:	00005097          	auipc	ra,0x5
    80001652:	cf8080e7          	jalr	-776(ra) # 80006346 <release>
}
    80001656:	60e2                	ld	ra,24(sp)
    80001658:	6442                	ld	s0,16(sp)
    8000165a:	64a2                	ld	s1,8(sp)
    8000165c:	6105                	addi	sp,sp,32
    8000165e:	8082                	ret

0000000080001660 <sleep>:

// Atomically release lock and sleep on chan.
// Reacquires lock when awakened.
void
sleep(void *chan, struct spinlock *lk)
{
    80001660:	7179                	addi	sp,sp,-48
    80001662:	f406                	sd	ra,40(sp)
    80001664:	f022                	sd	s0,32(sp)
    80001666:	ec26                	sd	s1,24(sp)
    80001668:	e84a                	sd	s2,16(sp)
    8000166a:	e44e                	sd	s3,8(sp)
    8000166c:	1800                	addi	s0,sp,48
    8000166e:	89aa                	mv	s3,a0
    80001670:	892e                	mv	s2,a1
  struct proc *p = myproc();
    80001672:	00000097          	auipc	ra,0x0
    80001676:	932080e7          	jalr	-1742(ra) # 80000fa4 <myproc>
    8000167a:	84aa                	mv	s1,a0
  // Once we hold p->lock, we can be
  // guaranteed that we won't miss any wakeup
  // (wakeup locks p->lock),
  // so it's okay to release lk.

  acquire(&p->lock);  //DOC: sleeplock1
    8000167c:	00005097          	auipc	ra,0x5
    80001680:	c16080e7          	jalr	-1002(ra) # 80006292 <acquire>
  release(lk);
    80001684:	854a                	mv	a0,s2
    80001686:	00005097          	auipc	ra,0x5
    8000168a:	cc0080e7          	jalr	-832(ra) # 80006346 <release>

  // Go to sleep.
  p->chan = chan;
    8000168e:	0334b023          	sd	s3,32(s1)
  p->state = SLEEPING;
    80001692:	4789                	li	a5,2
    80001694:	cc9c                	sw	a5,24(s1)

  sched();
    80001696:	00000097          	auipc	ra,0x0
    8000169a:	eb8080e7          	jalr	-328(ra) # 8000154e <sched>

  // Tidy up.
  p->chan = 0;
    8000169e:	0204b023          	sd	zero,32(s1)

  // Reacquire original lock.
  release(&p->lock);
    800016a2:	8526                	mv	a0,s1
    800016a4:	00005097          	auipc	ra,0x5
    800016a8:	ca2080e7          	jalr	-862(ra) # 80006346 <release>
  acquire(lk);
    800016ac:	854a                	mv	a0,s2
    800016ae:	00005097          	auipc	ra,0x5
    800016b2:	be4080e7          	jalr	-1052(ra) # 80006292 <acquire>
}
    800016b6:	70a2                	ld	ra,40(sp)
    800016b8:	7402                	ld	s0,32(sp)
    800016ba:	64e2                	ld	s1,24(sp)
    800016bc:	6942                	ld	s2,16(sp)
    800016be:	69a2                	ld	s3,8(sp)
    800016c0:	6145                	addi	sp,sp,48
    800016c2:	8082                	ret

00000000800016c4 <wait>:
{
    800016c4:	715d                	addi	sp,sp,-80
    800016c6:	e486                	sd	ra,72(sp)
    800016c8:	e0a2                	sd	s0,64(sp)
    800016ca:	fc26                	sd	s1,56(sp)
    800016cc:	f84a                	sd	s2,48(sp)
    800016ce:	f44e                	sd	s3,40(sp)
    800016d0:	f052                	sd	s4,32(sp)
    800016d2:	ec56                	sd	s5,24(sp)
    800016d4:	e85a                	sd	s6,16(sp)
    800016d6:	e45e                	sd	s7,8(sp)
    800016d8:	e062                	sd	s8,0(sp)
    800016da:	0880                	addi	s0,sp,80
    800016dc:	8b2a                	mv	s6,a0
  struct proc *p = myproc();
    800016de:	00000097          	auipc	ra,0x0
    800016e2:	8c6080e7          	jalr	-1850(ra) # 80000fa4 <myproc>
    800016e6:	892a                	mv	s2,a0
  acquire(&wait_lock);
    800016e8:	00028517          	auipc	a0,0x28
    800016ec:	98050513          	addi	a0,a0,-1664 # 80029068 <wait_lock>
    800016f0:	00005097          	auipc	ra,0x5
    800016f4:	ba2080e7          	jalr	-1118(ra) # 80006292 <acquire>
    havekids = 0;
    800016f8:	4b81                	li	s7,0
        if(np->state == ZOMBIE){
    800016fa:	4a15                	li	s4,5
    for(np = proc; np < &proc[NPROC]; np++){
    800016fc:	0002d997          	auipc	s3,0x2d
    80001700:	78498993          	addi	s3,s3,1924 # 8002ee80 <tickslock>
        havekids = 1;
    80001704:	4a85                	li	s5,1
    sleep(p, &wait_lock);  //DOC: wait-sleep
    80001706:	00028c17          	auipc	s8,0x28
    8000170a:	962c0c13          	addi	s8,s8,-1694 # 80029068 <wait_lock>
    havekids = 0;
    8000170e:	875e                	mv	a4,s7
    for(np = proc; np < &proc[NPROC]; np++){
    80001710:	00028497          	auipc	s1,0x28
    80001714:	d7048493          	addi	s1,s1,-656 # 80029480 <proc>
    80001718:	a0bd                	j	80001786 <wait+0xc2>
          pid = np->pid;
    8000171a:	0304a983          	lw	s3,48(s1)
          if(addr != 0 && copyout(p->pagetable, addr, (char *)&np->xstate,
    8000171e:	000b0e63          	beqz	s6,8000173a <wait+0x76>
    80001722:	4691                	li	a3,4
    80001724:	02c48613          	addi	a2,s1,44
    80001728:	85da                	mv	a1,s6
    8000172a:	05093503          	ld	a0,80(s2)
    8000172e:	fffff097          	auipc	ra,0xfffff
    80001732:	4be080e7          	jalr	1214(ra) # 80000bec <copyout>
    80001736:	02054563          	bltz	a0,80001760 <wait+0x9c>
          freeproc(np);
    8000173a:	8526                	mv	a0,s1
    8000173c:	00000097          	auipc	ra,0x0
    80001740:	a1a080e7          	jalr	-1510(ra) # 80001156 <freeproc>
          release(&np->lock);
    80001744:	8526                	mv	a0,s1
    80001746:	00005097          	auipc	ra,0x5
    8000174a:	c00080e7          	jalr	-1024(ra) # 80006346 <release>
          release(&wait_lock);
    8000174e:	00028517          	auipc	a0,0x28
    80001752:	91a50513          	addi	a0,a0,-1766 # 80029068 <wait_lock>
    80001756:	00005097          	auipc	ra,0x5
    8000175a:	bf0080e7          	jalr	-1040(ra) # 80006346 <release>
          return pid;
    8000175e:	a09d                	j	800017c4 <wait+0x100>
            release(&np->lock);
    80001760:	8526                	mv	a0,s1
    80001762:	00005097          	auipc	ra,0x5
    80001766:	be4080e7          	jalr	-1052(ra) # 80006346 <release>
            release(&wait_lock);
    8000176a:	00028517          	auipc	a0,0x28
    8000176e:	8fe50513          	addi	a0,a0,-1794 # 80029068 <wait_lock>
    80001772:	00005097          	auipc	ra,0x5
    80001776:	bd4080e7          	jalr	-1068(ra) # 80006346 <release>
            return -1;
    8000177a:	59fd                	li	s3,-1
    8000177c:	a0a1                	j	800017c4 <wait+0x100>
    for(np = proc; np < &proc[NPROC]; np++){
    8000177e:	16848493          	addi	s1,s1,360
    80001782:	03348463          	beq	s1,s3,800017aa <wait+0xe6>
      if(np->parent == p){
    80001786:	7c9c                	ld	a5,56(s1)
    80001788:	ff279be3          	bne	a5,s2,8000177e <wait+0xba>
        acquire(&np->lock);
    8000178c:	8526                	mv	a0,s1
    8000178e:	00005097          	auipc	ra,0x5
    80001792:	b04080e7          	jalr	-1276(ra) # 80006292 <acquire>
        if(np->state == ZOMBIE){
    80001796:	4c9c                	lw	a5,24(s1)
    80001798:	f94781e3          	beq	a5,s4,8000171a <wait+0x56>
        release(&np->lock);
    8000179c:	8526                	mv	a0,s1
    8000179e:	00005097          	auipc	ra,0x5
    800017a2:	ba8080e7          	jalr	-1112(ra) # 80006346 <release>
        havekids = 1;
    800017a6:	8756                	mv	a4,s5
    800017a8:	bfd9                	j	8000177e <wait+0xba>
    if(!havekids || p->killed){
    800017aa:	c701                	beqz	a4,800017b2 <wait+0xee>
    800017ac:	02892783          	lw	a5,40(s2)
    800017b0:	c79d                	beqz	a5,800017de <wait+0x11a>
      release(&wait_lock);
    800017b2:	00028517          	auipc	a0,0x28
    800017b6:	8b650513          	addi	a0,a0,-1866 # 80029068 <wait_lock>
    800017ba:	00005097          	auipc	ra,0x5
    800017be:	b8c080e7          	jalr	-1140(ra) # 80006346 <release>
      return -1;
    800017c2:	59fd                	li	s3,-1
}
    800017c4:	854e                	mv	a0,s3
    800017c6:	60a6                	ld	ra,72(sp)
    800017c8:	6406                	ld	s0,64(sp)
    800017ca:	74e2                	ld	s1,56(sp)
    800017cc:	7942                	ld	s2,48(sp)
    800017ce:	79a2                	ld	s3,40(sp)
    800017d0:	7a02                	ld	s4,32(sp)
    800017d2:	6ae2                	ld	s5,24(sp)
    800017d4:	6b42                	ld	s6,16(sp)
    800017d6:	6ba2                	ld	s7,8(sp)
    800017d8:	6c02                	ld	s8,0(sp)
    800017da:	6161                	addi	sp,sp,80
    800017dc:	8082                	ret
    sleep(p, &wait_lock);  //DOC: wait-sleep
    800017de:	85e2                	mv	a1,s8
    800017e0:	854a                	mv	a0,s2
    800017e2:	00000097          	auipc	ra,0x0
    800017e6:	e7e080e7          	jalr	-386(ra) # 80001660 <sleep>
    havekids = 0;
    800017ea:	b715                	j	8000170e <wait+0x4a>

00000000800017ec <wakeup>:

// Wake up all processes sleeping on chan.
// Must be called without any p->lock.
void
wakeup(void *chan)
{
    800017ec:	7139                	addi	sp,sp,-64
    800017ee:	fc06                	sd	ra,56(sp)
    800017f0:	f822                	sd	s0,48(sp)
    800017f2:	f426                	sd	s1,40(sp)
    800017f4:	f04a                	sd	s2,32(sp)
    800017f6:	ec4e                	sd	s3,24(sp)
    800017f8:	e852                	sd	s4,16(sp)
    800017fa:	e456                	sd	s5,8(sp)
    800017fc:	0080                	addi	s0,sp,64
    800017fe:	8a2a                	mv	s4,a0
  struct proc *p;

  for(p = proc; p < &proc[NPROC]; p++) {
    80001800:	00028497          	auipc	s1,0x28
    80001804:	c8048493          	addi	s1,s1,-896 # 80029480 <proc>
    if(p != myproc()){
      acquire(&p->lock);
      if(p->state == SLEEPING && p->chan == chan) {
    80001808:	4989                	li	s3,2
        p->state = RUNNABLE;
    8000180a:	4a8d                	li	s5,3
  for(p = proc; p < &proc[NPROC]; p++) {
    8000180c:	0002d917          	auipc	s2,0x2d
    80001810:	67490913          	addi	s2,s2,1652 # 8002ee80 <tickslock>
    80001814:	a821                	j	8000182c <wakeup+0x40>
        p->state = RUNNABLE;
    80001816:	0154ac23          	sw	s5,24(s1)
      }
      release(&p->lock);
    8000181a:	8526                	mv	a0,s1
    8000181c:	00005097          	auipc	ra,0x5
    80001820:	b2a080e7          	jalr	-1238(ra) # 80006346 <release>
  for(p = proc; p < &proc[NPROC]; p++) {
    80001824:	16848493          	addi	s1,s1,360
    80001828:	03248463          	beq	s1,s2,80001850 <wakeup+0x64>
    if(p != myproc()){
    8000182c:	fffff097          	auipc	ra,0xfffff
    80001830:	778080e7          	jalr	1912(ra) # 80000fa4 <myproc>
    80001834:	fea488e3          	beq	s1,a0,80001824 <wakeup+0x38>
      acquire(&p->lock);
    80001838:	8526                	mv	a0,s1
    8000183a:	00005097          	auipc	ra,0x5
    8000183e:	a58080e7          	jalr	-1448(ra) # 80006292 <acquire>
      if(p->state == SLEEPING && p->chan == chan) {
    80001842:	4c9c                	lw	a5,24(s1)
    80001844:	fd379be3          	bne	a5,s3,8000181a <wakeup+0x2e>
    80001848:	709c                	ld	a5,32(s1)
    8000184a:	fd4798e3          	bne	a5,s4,8000181a <wakeup+0x2e>
    8000184e:	b7e1                	j	80001816 <wakeup+0x2a>
    }
  }
}
    80001850:	70e2                	ld	ra,56(sp)
    80001852:	7442                	ld	s0,48(sp)
    80001854:	74a2                	ld	s1,40(sp)
    80001856:	7902                	ld	s2,32(sp)
    80001858:	69e2                	ld	s3,24(sp)
    8000185a:	6a42                	ld	s4,16(sp)
    8000185c:	6aa2                	ld	s5,8(sp)
    8000185e:	6121                	addi	sp,sp,64
    80001860:	8082                	ret

0000000080001862 <reparent>:
{
    80001862:	7179                	addi	sp,sp,-48
    80001864:	f406                	sd	ra,40(sp)
    80001866:	f022                	sd	s0,32(sp)
    80001868:	ec26                	sd	s1,24(sp)
    8000186a:	e84a                	sd	s2,16(sp)
    8000186c:	e44e                	sd	s3,8(sp)
    8000186e:	e052                	sd	s4,0(sp)
    80001870:	1800                	addi	s0,sp,48
    80001872:	892a                	mv	s2,a0
  for(pp = proc; pp < &proc[NPROC]; pp++){
    80001874:	00028497          	auipc	s1,0x28
    80001878:	c0c48493          	addi	s1,s1,-1012 # 80029480 <proc>
      pp->parent = initproc;
    8000187c:	00007a17          	auipc	s4,0x7
    80001880:	794a0a13          	addi	s4,s4,1940 # 80009010 <initproc>
  for(pp = proc; pp < &proc[NPROC]; pp++){
    80001884:	0002d997          	auipc	s3,0x2d
    80001888:	5fc98993          	addi	s3,s3,1532 # 8002ee80 <tickslock>
    8000188c:	a029                	j	80001896 <reparent+0x34>
    8000188e:	16848493          	addi	s1,s1,360
    80001892:	01348d63          	beq	s1,s3,800018ac <reparent+0x4a>
    if(pp->parent == p){
    80001896:	7c9c                	ld	a5,56(s1)
    80001898:	ff279be3          	bne	a5,s2,8000188e <reparent+0x2c>
      pp->parent = initproc;
    8000189c:	000a3503          	ld	a0,0(s4)
    800018a0:	fc88                	sd	a0,56(s1)
      wakeup(initproc);
    800018a2:	00000097          	auipc	ra,0x0
    800018a6:	f4a080e7          	jalr	-182(ra) # 800017ec <wakeup>
    800018aa:	b7d5                	j	8000188e <reparent+0x2c>
}
    800018ac:	70a2                	ld	ra,40(sp)
    800018ae:	7402                	ld	s0,32(sp)
    800018b0:	64e2                	ld	s1,24(sp)
    800018b2:	6942                	ld	s2,16(sp)
    800018b4:	69a2                	ld	s3,8(sp)
    800018b6:	6a02                	ld	s4,0(sp)
    800018b8:	6145                	addi	sp,sp,48
    800018ba:	8082                	ret

00000000800018bc <exit>:
{
    800018bc:	7179                	addi	sp,sp,-48
    800018be:	f406                	sd	ra,40(sp)
    800018c0:	f022                	sd	s0,32(sp)
    800018c2:	ec26                	sd	s1,24(sp)
    800018c4:	e84a                	sd	s2,16(sp)
    800018c6:	e44e                	sd	s3,8(sp)
    800018c8:	e052                	sd	s4,0(sp)
    800018ca:	1800                	addi	s0,sp,48
    800018cc:	8a2a                	mv	s4,a0
  struct proc *p = myproc();
    800018ce:	fffff097          	auipc	ra,0xfffff
    800018d2:	6d6080e7          	jalr	1750(ra) # 80000fa4 <myproc>
    800018d6:	89aa                	mv	s3,a0
  if(p == initproc)
    800018d8:	00007797          	auipc	a5,0x7
    800018dc:	7387b783          	ld	a5,1848(a5) # 80009010 <initproc>
    800018e0:	0d050493          	addi	s1,a0,208
    800018e4:	15050913          	addi	s2,a0,336
    800018e8:	02a79363          	bne	a5,a0,8000190e <exit+0x52>
    panic("init exiting");
    800018ec:	00007517          	auipc	a0,0x7
    800018f0:	92450513          	addi	a0,a0,-1756 # 80008210 <etext+0x210>
    800018f4:	00004097          	auipc	ra,0x4
    800018f8:	454080e7          	jalr	1108(ra) # 80005d48 <panic>
      fileclose(f);
    800018fc:	00002097          	auipc	ra,0x2
    80001900:	238080e7          	jalr	568(ra) # 80003b34 <fileclose>
      p->ofile[fd] = 0;
    80001904:	0004b023          	sd	zero,0(s1)
  for(int fd = 0; fd < NOFILE; fd++){
    80001908:	04a1                	addi	s1,s1,8
    8000190a:	01248563          	beq	s1,s2,80001914 <exit+0x58>
    if(p->ofile[fd]){
    8000190e:	6088                	ld	a0,0(s1)
    80001910:	f575                	bnez	a0,800018fc <exit+0x40>
    80001912:	bfdd                	j	80001908 <exit+0x4c>
  begin_op();
    80001914:	00002097          	auipc	ra,0x2
    80001918:	d54080e7          	jalr	-684(ra) # 80003668 <begin_op>
  iput(p->cwd);
    8000191c:	1509b503          	ld	a0,336(s3)
    80001920:	00001097          	auipc	ra,0x1
    80001924:	530080e7          	jalr	1328(ra) # 80002e50 <iput>
  end_op();
    80001928:	00002097          	auipc	ra,0x2
    8000192c:	dc0080e7          	jalr	-576(ra) # 800036e8 <end_op>
  p->cwd = 0;
    80001930:	1409b823          	sd	zero,336(s3)
  acquire(&wait_lock);
    80001934:	00027497          	auipc	s1,0x27
    80001938:	73448493          	addi	s1,s1,1844 # 80029068 <wait_lock>
    8000193c:	8526                	mv	a0,s1
    8000193e:	00005097          	auipc	ra,0x5
    80001942:	954080e7          	jalr	-1708(ra) # 80006292 <acquire>
  reparent(p);
    80001946:	854e                	mv	a0,s3
    80001948:	00000097          	auipc	ra,0x0
    8000194c:	f1a080e7          	jalr	-230(ra) # 80001862 <reparent>
  wakeup(p->parent);
    80001950:	0389b503          	ld	a0,56(s3)
    80001954:	00000097          	auipc	ra,0x0
    80001958:	e98080e7          	jalr	-360(ra) # 800017ec <wakeup>
  acquire(&p->lock);
    8000195c:	854e                	mv	a0,s3
    8000195e:	00005097          	auipc	ra,0x5
    80001962:	934080e7          	jalr	-1740(ra) # 80006292 <acquire>
  p->xstate = status;
    80001966:	0349a623          	sw	s4,44(s3)
  p->state = ZOMBIE;
    8000196a:	4795                	li	a5,5
    8000196c:	00f9ac23          	sw	a5,24(s3)
  release(&wait_lock);
    80001970:	8526                	mv	a0,s1
    80001972:	00005097          	auipc	ra,0x5
    80001976:	9d4080e7          	jalr	-1580(ra) # 80006346 <release>
  sched();
    8000197a:	00000097          	auipc	ra,0x0
    8000197e:	bd4080e7          	jalr	-1068(ra) # 8000154e <sched>
  panic("zombie exit");
    80001982:	00007517          	auipc	a0,0x7
    80001986:	89e50513          	addi	a0,a0,-1890 # 80008220 <etext+0x220>
    8000198a:	00004097          	auipc	ra,0x4
    8000198e:	3be080e7          	jalr	958(ra) # 80005d48 <panic>

0000000080001992 <kill>:
// Kill the process with the given pid.
// The victim won't exit until it tries to return
// to user space (see usertrap() in trap.c).
int
kill(int pid)
{
    80001992:	7179                	addi	sp,sp,-48
    80001994:	f406                	sd	ra,40(sp)
    80001996:	f022                	sd	s0,32(sp)
    80001998:	ec26                	sd	s1,24(sp)
    8000199a:	e84a                	sd	s2,16(sp)
    8000199c:	e44e                	sd	s3,8(sp)
    8000199e:	1800                	addi	s0,sp,48
    800019a0:	892a                	mv	s2,a0
  struct proc *p;

  for(p = proc; p < &proc[NPROC]; p++){
    800019a2:	00028497          	auipc	s1,0x28
    800019a6:	ade48493          	addi	s1,s1,-1314 # 80029480 <proc>
    800019aa:	0002d997          	auipc	s3,0x2d
    800019ae:	4d698993          	addi	s3,s3,1238 # 8002ee80 <tickslock>
    acquire(&p->lock);
    800019b2:	8526                	mv	a0,s1
    800019b4:	00005097          	auipc	ra,0x5
    800019b8:	8de080e7          	jalr	-1826(ra) # 80006292 <acquire>
    if(p->pid == pid){
    800019bc:	589c                	lw	a5,48(s1)
    800019be:	01278d63          	beq	a5,s2,800019d8 <kill+0x46>
        p->state = RUNNABLE;
      }
      release(&p->lock);
      return 0;
    }
    release(&p->lock);
    800019c2:	8526                	mv	a0,s1
    800019c4:	00005097          	auipc	ra,0x5
    800019c8:	982080e7          	jalr	-1662(ra) # 80006346 <release>
  for(p = proc; p < &proc[NPROC]; p++){
    800019cc:	16848493          	addi	s1,s1,360
    800019d0:	ff3491e3          	bne	s1,s3,800019b2 <kill+0x20>
  }
  return -1;
    800019d4:	557d                	li	a0,-1
    800019d6:	a829                	j	800019f0 <kill+0x5e>
      p->killed = 1;
    800019d8:	4785                	li	a5,1
    800019da:	d49c                	sw	a5,40(s1)
      if(p->state == SLEEPING){
    800019dc:	4c98                	lw	a4,24(s1)
    800019de:	4789                	li	a5,2
    800019e0:	00f70f63          	beq	a4,a5,800019fe <kill+0x6c>
      release(&p->lock);
    800019e4:	8526                	mv	a0,s1
    800019e6:	00005097          	auipc	ra,0x5
    800019ea:	960080e7          	jalr	-1696(ra) # 80006346 <release>
      return 0;
    800019ee:	4501                	li	a0,0
}
    800019f0:	70a2                	ld	ra,40(sp)
    800019f2:	7402                	ld	s0,32(sp)
    800019f4:	64e2                	ld	s1,24(sp)
    800019f6:	6942                	ld	s2,16(sp)
    800019f8:	69a2                	ld	s3,8(sp)
    800019fa:	6145                	addi	sp,sp,48
    800019fc:	8082                	ret
        p->state = RUNNABLE;
    800019fe:	478d                	li	a5,3
    80001a00:	cc9c                	sw	a5,24(s1)
    80001a02:	b7cd                	j	800019e4 <kill+0x52>

0000000080001a04 <either_copyout>:
// Copy to either a user address, or kernel address,
// depending on usr_dst.
// Returns 0 on success, -1 on error.
int
either_copyout(int user_dst, uint64 dst, void *src, uint64 len)
{
    80001a04:	7179                	addi	sp,sp,-48
    80001a06:	f406                	sd	ra,40(sp)
    80001a08:	f022                	sd	s0,32(sp)
    80001a0a:	ec26                	sd	s1,24(sp)
    80001a0c:	e84a                	sd	s2,16(sp)
    80001a0e:	e44e                	sd	s3,8(sp)
    80001a10:	e052                	sd	s4,0(sp)
    80001a12:	1800                	addi	s0,sp,48
    80001a14:	84aa                	mv	s1,a0
    80001a16:	892e                	mv	s2,a1
    80001a18:	89b2                	mv	s3,a2
    80001a1a:	8a36                	mv	s4,a3
  struct proc *p = myproc();
    80001a1c:	fffff097          	auipc	ra,0xfffff
    80001a20:	588080e7          	jalr	1416(ra) # 80000fa4 <myproc>
  if(user_dst){
    80001a24:	c08d                	beqz	s1,80001a46 <either_copyout+0x42>
    return copyout(p->pagetable, dst, src, len);
    80001a26:	86d2                	mv	a3,s4
    80001a28:	864e                	mv	a2,s3
    80001a2a:	85ca                	mv	a1,s2
    80001a2c:	6928                	ld	a0,80(a0)
    80001a2e:	fffff097          	auipc	ra,0xfffff
    80001a32:	1be080e7          	jalr	446(ra) # 80000bec <copyout>
  } else {
    memmove((char *)dst, src, len);
    return 0;
  }
}
    80001a36:	70a2                	ld	ra,40(sp)
    80001a38:	7402                	ld	s0,32(sp)
    80001a3a:	64e2                	ld	s1,24(sp)
    80001a3c:	6942                	ld	s2,16(sp)
    80001a3e:	69a2                	ld	s3,8(sp)
    80001a40:	6a02                	ld	s4,0(sp)
    80001a42:	6145                	addi	sp,sp,48
    80001a44:	8082                	ret
    memmove((char *)dst, src, len);
    80001a46:	000a061b          	sext.w	a2,s4
    80001a4a:	85ce                	mv	a1,s3
    80001a4c:	854a                	mv	a0,s2
    80001a4e:	fffff097          	auipc	ra,0xfffff
    80001a52:	85c080e7          	jalr	-1956(ra) # 800002aa <memmove>
    return 0;
    80001a56:	8526                	mv	a0,s1
    80001a58:	bff9                	j	80001a36 <either_copyout+0x32>

0000000080001a5a <either_copyin>:
// Copy from either a user address, or kernel address,
// depending on usr_src.
// Returns 0 on success, -1 on error.
int
either_copyin(void *dst, int user_src, uint64 src, uint64 len)
{
    80001a5a:	7179                	addi	sp,sp,-48
    80001a5c:	f406                	sd	ra,40(sp)
    80001a5e:	f022                	sd	s0,32(sp)
    80001a60:	ec26                	sd	s1,24(sp)
    80001a62:	e84a                	sd	s2,16(sp)
    80001a64:	e44e                	sd	s3,8(sp)
    80001a66:	e052                	sd	s4,0(sp)
    80001a68:	1800                	addi	s0,sp,48
    80001a6a:	892a                	mv	s2,a0
    80001a6c:	84ae                	mv	s1,a1
    80001a6e:	89b2                	mv	s3,a2
    80001a70:	8a36                	mv	s4,a3
  struct proc *p = myproc();
    80001a72:	fffff097          	auipc	ra,0xfffff
    80001a76:	532080e7          	jalr	1330(ra) # 80000fa4 <myproc>
  if(user_src){
    80001a7a:	c08d                	beqz	s1,80001a9c <either_copyin+0x42>
    return copyin(p->pagetable, dst, src, len);
    80001a7c:	86d2                	mv	a3,s4
    80001a7e:	864e                	mv	a2,s3
    80001a80:	85ca                	mv	a1,s2
    80001a82:	6928                	ld	a0,80(a0)
    80001a84:	fffff097          	auipc	ra,0xfffff
    80001a88:	26e080e7          	jalr	622(ra) # 80000cf2 <copyin>
  } else {
    memmove(dst, (char*)src, len);
    return 0;
  }
}
    80001a8c:	70a2                	ld	ra,40(sp)
    80001a8e:	7402                	ld	s0,32(sp)
    80001a90:	64e2                	ld	s1,24(sp)
    80001a92:	6942                	ld	s2,16(sp)
    80001a94:	69a2                	ld	s3,8(sp)
    80001a96:	6a02                	ld	s4,0(sp)
    80001a98:	6145                	addi	sp,sp,48
    80001a9a:	8082                	ret
    memmove(dst, (char*)src, len);
    80001a9c:	000a061b          	sext.w	a2,s4
    80001aa0:	85ce                	mv	a1,s3
    80001aa2:	854a                	mv	a0,s2
    80001aa4:	fffff097          	auipc	ra,0xfffff
    80001aa8:	806080e7          	jalr	-2042(ra) # 800002aa <memmove>
    return 0;
    80001aac:	8526                	mv	a0,s1
    80001aae:	bff9                	j	80001a8c <either_copyin+0x32>

0000000080001ab0 <procdump>:
// Print a process listing to console.  For debugging.
// Runs when user types ^P on console.
// No lock to avoid wedging a stuck machine further.
void
procdump(void)
{
    80001ab0:	715d                	addi	sp,sp,-80
    80001ab2:	e486                	sd	ra,72(sp)
    80001ab4:	e0a2                	sd	s0,64(sp)
    80001ab6:	fc26                	sd	s1,56(sp)
    80001ab8:	f84a                	sd	s2,48(sp)
    80001aba:	f44e                	sd	s3,40(sp)
    80001abc:	f052                	sd	s4,32(sp)
    80001abe:	ec56                	sd	s5,24(sp)
    80001ac0:	e85a                	sd	s6,16(sp)
    80001ac2:	e45e                	sd	s7,8(sp)
    80001ac4:	0880                	addi	s0,sp,80
  [ZOMBIE]    "zombie"
  };
  struct proc *p;
  char *state;

  printf("\n");
    80001ac6:	00006517          	auipc	a0,0x6
    80001aca:	59250513          	addi	a0,a0,1426 # 80008058 <etext+0x58>
    80001ace:	00004097          	auipc	ra,0x4
    80001ad2:	2c4080e7          	jalr	708(ra) # 80005d92 <printf>
  for(p = proc; p < &proc[NPROC]; p++){
    80001ad6:	00028497          	auipc	s1,0x28
    80001ada:	b0248493          	addi	s1,s1,-1278 # 800295d8 <proc+0x158>
    80001ade:	0002d917          	auipc	s2,0x2d
    80001ae2:	4fa90913          	addi	s2,s2,1274 # 8002efd8 <bcache+0x140>
    if(p->state == UNUSED)
      continue;
    if(p->state >= 0 && p->state < NELEM(states) && states[p->state])
    80001ae6:	4b15                	li	s6,5
      state = states[p->state];
    else
      state = "???";
    80001ae8:	00006997          	auipc	s3,0x6
    80001aec:	74898993          	addi	s3,s3,1864 # 80008230 <etext+0x230>
    printf("%d %s %s", p->pid, state, p->name);
    80001af0:	00006a97          	auipc	s5,0x6
    80001af4:	748a8a93          	addi	s5,s5,1864 # 80008238 <etext+0x238>
    printf("\n");
    80001af8:	00006a17          	auipc	s4,0x6
    80001afc:	560a0a13          	addi	s4,s4,1376 # 80008058 <etext+0x58>
    if(p->state >= 0 && p->state < NELEM(states) && states[p->state])
    80001b00:	00006b97          	auipc	s7,0x6
    80001b04:	770b8b93          	addi	s7,s7,1904 # 80008270 <states.1717>
    80001b08:	a00d                	j	80001b2a <procdump+0x7a>
    printf("%d %s %s", p->pid, state, p->name);
    80001b0a:	ed86a583          	lw	a1,-296(a3)
    80001b0e:	8556                	mv	a0,s5
    80001b10:	00004097          	auipc	ra,0x4
    80001b14:	282080e7          	jalr	642(ra) # 80005d92 <printf>
    printf("\n");
    80001b18:	8552                	mv	a0,s4
    80001b1a:	00004097          	auipc	ra,0x4
    80001b1e:	278080e7          	jalr	632(ra) # 80005d92 <printf>
  for(p = proc; p < &proc[NPROC]; p++){
    80001b22:	16848493          	addi	s1,s1,360
    80001b26:	03248163          	beq	s1,s2,80001b48 <procdump+0x98>
    if(p->state == UNUSED)
    80001b2a:	86a6                	mv	a3,s1
    80001b2c:	ec04a783          	lw	a5,-320(s1)
    80001b30:	dbed                	beqz	a5,80001b22 <procdump+0x72>
      state = "???";
    80001b32:	864e                	mv	a2,s3
    if(p->state >= 0 && p->state < NELEM(states) && states[p->state])
    80001b34:	fcfb6be3          	bltu	s6,a5,80001b0a <procdump+0x5a>
    80001b38:	1782                	slli	a5,a5,0x20
    80001b3a:	9381                	srli	a5,a5,0x20
    80001b3c:	078e                	slli	a5,a5,0x3
    80001b3e:	97de                	add	a5,a5,s7
    80001b40:	6390                	ld	a2,0(a5)
    80001b42:	f661                	bnez	a2,80001b0a <procdump+0x5a>
      state = "???";
    80001b44:	864e                	mv	a2,s3
    80001b46:	b7d1                	j	80001b0a <procdump+0x5a>
  }
}
    80001b48:	60a6                	ld	ra,72(sp)
    80001b4a:	6406                	ld	s0,64(sp)
    80001b4c:	74e2                	ld	s1,56(sp)
    80001b4e:	7942                	ld	s2,48(sp)
    80001b50:	79a2                	ld	s3,40(sp)
    80001b52:	7a02                	ld	s4,32(sp)
    80001b54:	6ae2                	ld	s5,24(sp)
    80001b56:	6b42                	ld	s6,16(sp)
    80001b58:	6ba2                	ld	s7,8(sp)
    80001b5a:	6161                	addi	sp,sp,80
    80001b5c:	8082                	ret

0000000080001b5e <swtch>:
    80001b5e:	00153023          	sd	ra,0(a0)
    80001b62:	00253423          	sd	sp,8(a0)
    80001b66:	e900                	sd	s0,16(a0)
    80001b68:	ed04                	sd	s1,24(a0)
    80001b6a:	03253023          	sd	s2,32(a0)
    80001b6e:	03353423          	sd	s3,40(a0)
    80001b72:	03453823          	sd	s4,48(a0)
    80001b76:	03553c23          	sd	s5,56(a0)
    80001b7a:	05653023          	sd	s6,64(a0)
    80001b7e:	05753423          	sd	s7,72(a0)
    80001b82:	05853823          	sd	s8,80(a0)
    80001b86:	05953c23          	sd	s9,88(a0)
    80001b8a:	07a53023          	sd	s10,96(a0)
    80001b8e:	07b53423          	sd	s11,104(a0)
    80001b92:	0005b083          	ld	ra,0(a1)
    80001b96:	0085b103          	ld	sp,8(a1)
    80001b9a:	6980                	ld	s0,16(a1)
    80001b9c:	6d84                	ld	s1,24(a1)
    80001b9e:	0205b903          	ld	s2,32(a1)
    80001ba2:	0285b983          	ld	s3,40(a1)
    80001ba6:	0305ba03          	ld	s4,48(a1)
    80001baa:	0385ba83          	ld	s5,56(a1)
    80001bae:	0405bb03          	ld	s6,64(a1)
    80001bb2:	0485bb83          	ld	s7,72(a1)
    80001bb6:	0505bc03          	ld	s8,80(a1)
    80001bba:	0585bc83          	ld	s9,88(a1)
    80001bbe:	0605bd03          	ld	s10,96(a1)
    80001bc2:	0685bd83          	ld	s11,104(a1)
    80001bc6:	8082                	ret

0000000080001bc8 <trapinit>:

extern int devintr();

void
trapinit(void)
{
    80001bc8:	1141                	addi	sp,sp,-16
    80001bca:	e406                	sd	ra,8(sp)
    80001bcc:	e022                	sd	s0,0(sp)
    80001bce:	0800                	addi	s0,sp,16
  initlock(&tickslock, "time");
    80001bd0:	00006597          	auipc	a1,0x6
    80001bd4:	6d058593          	addi	a1,a1,1744 # 800082a0 <states.1717+0x30>
    80001bd8:	0002d517          	auipc	a0,0x2d
    80001bdc:	2a850513          	addi	a0,a0,680 # 8002ee80 <tickslock>
    80001be0:	00004097          	auipc	ra,0x4
    80001be4:	622080e7          	jalr	1570(ra) # 80006202 <initlock>
}
    80001be8:	60a2                	ld	ra,8(sp)
    80001bea:	6402                	ld	s0,0(sp)
    80001bec:	0141                	addi	sp,sp,16
    80001bee:	8082                	ret

0000000080001bf0 <trapinithart>:

// set up to take exceptions and traps while in the kernel.
void
trapinithart(void)
{
    80001bf0:	1141                	addi	sp,sp,-16
    80001bf2:	e422                	sd	s0,8(sp)
    80001bf4:	0800                	addi	s0,sp,16
  asm volatile("csrw stvec, %0" : : "r" (x));
    80001bf6:	00003797          	auipc	a5,0x3
    80001bfa:	55a78793          	addi	a5,a5,1370 # 80005150 <kernelvec>
    80001bfe:	10579073          	csrw	stvec,a5
  w_stvec((uint64)kernelvec);
}
    80001c02:	6422                	ld	s0,8(sp)
    80001c04:	0141                	addi	sp,sp,16
    80001c06:	8082                	ret

0000000080001c08 <usertrapret>:
//
// return to user space
//
void
usertrapret(void)
{
    80001c08:	1141                	addi	sp,sp,-16
    80001c0a:	e406                	sd	ra,8(sp)
    80001c0c:	e022                	sd	s0,0(sp)
    80001c0e:	0800                	addi	s0,sp,16
  struct proc *p = myproc();
    80001c10:	fffff097          	auipc	ra,0xfffff
    80001c14:	394080e7          	jalr	916(ra) # 80000fa4 <myproc>
  asm volatile("csrr %0, sstatus" : "=r" (x) );
    80001c18:	100027f3          	csrr	a5,sstatus
  w_sstatus(r_sstatus() & ~SSTATUS_SIE);
    80001c1c:	9bf5                	andi	a5,a5,-3
  asm volatile("csrw sstatus, %0" : : "r" (x));
    80001c1e:	10079073          	csrw	sstatus,a5
  // kerneltrap() to usertrap(), so turn off interrupts until
  // we're back in user space, where usertrap() is correct.
  intr_off();

  // send syscalls, interrupts, and exceptions to trampoline.S
  w_stvec(TRAMPOLINE + (uservec - trampoline));
    80001c22:	00005617          	auipc	a2,0x5
    80001c26:	3de60613          	addi	a2,a2,990 # 80007000 <_trampoline>
    80001c2a:	00005697          	auipc	a3,0x5
    80001c2e:	3d668693          	addi	a3,a3,982 # 80007000 <_trampoline>
    80001c32:	8e91                	sub	a3,a3,a2
    80001c34:	040007b7          	lui	a5,0x4000
    80001c38:	17fd                	addi	a5,a5,-1
    80001c3a:	07b2                	slli	a5,a5,0xc
    80001c3c:	96be                	add	a3,a3,a5
  asm volatile("csrw stvec, %0" : : "r" (x));
    80001c3e:	10569073          	csrw	stvec,a3

  // set up trapframe values that uservec will need when
  // the process next re-enters the kernel.
  p->trapframe->kernel_satp = r_satp();         // kernel page table
    80001c42:	6d38                	ld	a4,88(a0)
  asm volatile("csrr %0, satp" : "=r" (x) );
    80001c44:	180026f3          	csrr	a3,satp
    80001c48:	e314                	sd	a3,0(a4)
  p->trapframe->kernel_sp = p->kstack + PGSIZE; // process's kernel stack
    80001c4a:	6d38                	ld	a4,88(a0)
    80001c4c:	6134                	ld	a3,64(a0)
    80001c4e:	6585                	lui	a1,0x1
    80001c50:	96ae                	add	a3,a3,a1
    80001c52:	e714                	sd	a3,8(a4)
  p->trapframe->kernel_trap = (uint64)usertrap;
    80001c54:	6d38                	ld	a4,88(a0)
    80001c56:	00000697          	auipc	a3,0x0
    80001c5a:	13868693          	addi	a3,a3,312 # 80001d8e <usertrap>
    80001c5e:	eb14                	sd	a3,16(a4)
  p->trapframe->kernel_hartid = r_tp();         // hartid for cpuid()
    80001c60:	6d38                	ld	a4,88(a0)
  asm volatile("mv %0, tp" : "=r" (x) );
    80001c62:	8692                	mv	a3,tp
    80001c64:	f314                	sd	a3,32(a4)
  asm volatile("csrr %0, sstatus" : "=r" (x) );
    80001c66:	100026f3          	csrr	a3,sstatus
  // set up the registers that trampoline.S's sret will use
  // to get to user space.
  
  // set S Previous Privilege mode to User.
  unsigned long x = r_sstatus();
  x &= ~SSTATUS_SPP; // clear SPP to 0 for user mode
    80001c6a:	eff6f693          	andi	a3,a3,-257
  x |= SSTATUS_SPIE; // enable interrupts in user mode
    80001c6e:	0206e693          	ori	a3,a3,32
  asm volatile("csrw sstatus, %0" : : "r" (x));
    80001c72:	10069073          	csrw	sstatus,a3
  w_sstatus(x);

  // set S Exception Program Counter to the saved user pc.
  w_sepc(p->trapframe->epc);
    80001c76:	6d38                	ld	a4,88(a0)
  asm volatile("csrw sepc, %0" : : "r" (x));
    80001c78:	6f18                	ld	a4,24(a4)
    80001c7a:	14171073          	csrw	sepc,a4

  // tell trampoline.S the user page table to switch to.
  uint64 satp = MAKE_SATP(p->pagetable);
    80001c7e:	692c                	ld	a1,80(a0)
    80001c80:	81b1                	srli	a1,a1,0xc

  // jump to trampoline.S at the top of memory, which 
  // switches to the user page table, restores user registers,
  // and switches to user mode with sret.
  uint64 fn = TRAMPOLINE + (userret - trampoline);
    80001c82:	00005717          	auipc	a4,0x5
    80001c86:	40e70713          	addi	a4,a4,1038 # 80007090 <userret>
    80001c8a:	8f11                	sub	a4,a4,a2
    80001c8c:	97ba                	add	a5,a5,a4
  ((void (*)(uint64,uint64))fn)(TRAPFRAME, satp);
    80001c8e:	577d                	li	a4,-1
    80001c90:	177e                	slli	a4,a4,0x3f
    80001c92:	8dd9                	or	a1,a1,a4
    80001c94:	02000537          	lui	a0,0x2000
    80001c98:	157d                	addi	a0,a0,-1
    80001c9a:	0536                	slli	a0,a0,0xd
    80001c9c:	9782                	jalr	a5
}
    80001c9e:	60a2                	ld	ra,8(sp)
    80001ca0:	6402                	ld	s0,0(sp)
    80001ca2:	0141                	addi	sp,sp,16
    80001ca4:	8082                	ret

0000000080001ca6 <clockintr>:
  w_sstatus(sstatus);
}

void
clockintr()
{
    80001ca6:	1101                	addi	sp,sp,-32
    80001ca8:	ec06                	sd	ra,24(sp)
    80001caa:	e822                	sd	s0,16(sp)
    80001cac:	e426                	sd	s1,8(sp)
    80001cae:	1000                	addi	s0,sp,32
  acquire(&tickslock);
    80001cb0:	0002d497          	auipc	s1,0x2d
    80001cb4:	1d048493          	addi	s1,s1,464 # 8002ee80 <tickslock>
    80001cb8:	8526                	mv	a0,s1
    80001cba:	00004097          	auipc	ra,0x4
    80001cbe:	5d8080e7          	jalr	1496(ra) # 80006292 <acquire>
  ticks++;
    80001cc2:	00007517          	auipc	a0,0x7
    80001cc6:	35650513          	addi	a0,a0,854 # 80009018 <ticks>
    80001cca:	411c                	lw	a5,0(a0)
    80001ccc:	2785                	addiw	a5,a5,1
    80001cce:	c11c                	sw	a5,0(a0)
  wakeup(&ticks);
    80001cd0:	00000097          	auipc	ra,0x0
    80001cd4:	b1c080e7          	jalr	-1252(ra) # 800017ec <wakeup>
  release(&tickslock);
    80001cd8:	8526                	mv	a0,s1
    80001cda:	00004097          	auipc	ra,0x4
    80001cde:	66c080e7          	jalr	1644(ra) # 80006346 <release>
}
    80001ce2:	60e2                	ld	ra,24(sp)
    80001ce4:	6442                	ld	s0,16(sp)
    80001ce6:	64a2                	ld	s1,8(sp)
    80001ce8:	6105                	addi	sp,sp,32
    80001cea:	8082                	ret

0000000080001cec <devintr>:
// returns 2 if timer interrupt,
// 1 if other device,
// 0 if not recognized.
int
devintr()
{
    80001cec:	1101                	addi	sp,sp,-32
    80001cee:	ec06                	sd	ra,24(sp)
    80001cf0:	e822                	sd	s0,16(sp)
    80001cf2:	e426                	sd	s1,8(sp)
    80001cf4:	1000                	addi	s0,sp,32
  asm volatile("csrr %0, scause" : "=r" (x) );
    80001cf6:	14202773          	csrr	a4,scause
  uint64 scause = r_scause();

  if((scause & 0x8000000000000000L) &&
    80001cfa:	00074d63          	bltz	a4,80001d14 <devintr+0x28>
    // now allowed to interrupt again.
    if(irq)
      plic_complete(irq);

    return 1;
  } else if(scause == 0x8000000000000001L){
    80001cfe:	57fd                	li	a5,-1
    80001d00:	17fe                	slli	a5,a5,0x3f
    80001d02:	0785                	addi	a5,a5,1
    // the SSIP bit in sip.
    w_sip(r_sip() & ~2);

    return 2;
  } else {
    return 0;
    80001d04:	4501                	li	a0,0
  } else if(scause == 0x8000000000000001L){
    80001d06:	06f70363          	beq	a4,a5,80001d6c <devintr+0x80>
  }
}
    80001d0a:	60e2                	ld	ra,24(sp)
    80001d0c:	6442                	ld	s0,16(sp)
    80001d0e:	64a2                	ld	s1,8(sp)
    80001d10:	6105                	addi	sp,sp,32
    80001d12:	8082                	ret
     (scause & 0xff) == 9){
    80001d14:	0ff77793          	andi	a5,a4,255
  if((scause & 0x8000000000000000L) &&
    80001d18:	46a5                	li	a3,9
    80001d1a:	fed792e3          	bne	a5,a3,80001cfe <devintr+0x12>
    int irq = plic_claim();
    80001d1e:	00003097          	auipc	ra,0x3
    80001d22:	53a080e7          	jalr	1338(ra) # 80005258 <plic_claim>
    80001d26:	84aa                	mv	s1,a0
    if(irq == UART0_IRQ){
    80001d28:	47a9                	li	a5,10
    80001d2a:	02f50763          	beq	a0,a5,80001d58 <devintr+0x6c>
    } else if(irq == VIRTIO0_IRQ){
    80001d2e:	4785                	li	a5,1
    80001d30:	02f50963          	beq	a0,a5,80001d62 <devintr+0x76>
    return 1;
    80001d34:	4505                	li	a0,1
    } else if(irq){
    80001d36:	d8f1                	beqz	s1,80001d0a <devintr+0x1e>
      printf("unexpected interrupt irq=%d\n", irq);
    80001d38:	85a6                	mv	a1,s1
    80001d3a:	00006517          	auipc	a0,0x6
    80001d3e:	56e50513          	addi	a0,a0,1390 # 800082a8 <states.1717+0x38>
    80001d42:	00004097          	auipc	ra,0x4
    80001d46:	050080e7          	jalr	80(ra) # 80005d92 <printf>
      plic_complete(irq);
    80001d4a:	8526                	mv	a0,s1
    80001d4c:	00003097          	auipc	ra,0x3
    80001d50:	530080e7          	jalr	1328(ra) # 8000527c <plic_complete>
    return 1;
    80001d54:	4505                	li	a0,1
    80001d56:	bf55                	j	80001d0a <devintr+0x1e>
      uartintr();
    80001d58:	00004097          	auipc	ra,0x4
    80001d5c:	45a080e7          	jalr	1114(ra) # 800061b2 <uartintr>
    80001d60:	b7ed                	j	80001d4a <devintr+0x5e>
      virtio_disk_intr();
    80001d62:	00004097          	auipc	ra,0x4
    80001d66:	9fa080e7          	jalr	-1542(ra) # 8000575c <virtio_disk_intr>
    80001d6a:	b7c5                	j	80001d4a <devintr+0x5e>
    if(cpuid() == 0){
    80001d6c:	fffff097          	auipc	ra,0xfffff
    80001d70:	20c080e7          	jalr	524(ra) # 80000f78 <cpuid>
    80001d74:	c901                	beqz	a0,80001d84 <devintr+0x98>
  asm volatile("csrr %0, sip" : "=r" (x) );
    80001d76:	144027f3          	csrr	a5,sip
    w_sip(r_sip() & ~2);
    80001d7a:	9bf5                	andi	a5,a5,-3
  asm volatile("csrw sip, %0" : : "r" (x));
    80001d7c:	14479073          	csrw	sip,a5
    return 2;
    80001d80:	4509                	li	a0,2
    80001d82:	b761                	j	80001d0a <devintr+0x1e>
      clockintr();
    80001d84:	00000097          	auipc	ra,0x0
    80001d88:	f22080e7          	jalr	-222(ra) # 80001ca6 <clockintr>
    80001d8c:	b7ed                	j	80001d76 <devintr+0x8a>

0000000080001d8e <usertrap>:
{
    80001d8e:	7139                	addi	sp,sp,-64
    80001d90:	fc06                	sd	ra,56(sp)
    80001d92:	f822                	sd	s0,48(sp)
    80001d94:	f426                	sd	s1,40(sp)
    80001d96:	f04a                	sd	s2,32(sp)
    80001d98:	ec4e                	sd	s3,24(sp)
    80001d9a:	e852                	sd	s4,16(sp)
    80001d9c:	e456                	sd	s5,8(sp)
    80001d9e:	0080                	addi	s0,sp,64
  asm volatile("csrr %0, sstatus" : "=r" (x) );
    80001da0:	100027f3          	csrr	a5,sstatus
  if((r_sstatus() & SSTATUS_SPP) != 0)
    80001da4:	1007f793          	andi	a5,a5,256
    80001da8:	e7ad                	bnez	a5,80001e12 <usertrap+0x84>
  asm volatile("csrw stvec, %0" : : "r" (x));
    80001daa:	00003797          	auipc	a5,0x3
    80001dae:	3a678793          	addi	a5,a5,934 # 80005150 <kernelvec>
    80001db2:	10579073          	csrw	stvec,a5
  struct proc *p = myproc();
    80001db6:	fffff097          	auipc	ra,0xfffff
    80001dba:	1ee080e7          	jalr	494(ra) # 80000fa4 <myproc>
    80001dbe:	84aa                	mv	s1,a0
  p->trapframe->epc = r_sepc();
    80001dc0:	6d3c                	ld	a5,88(a0)
  asm volatile("csrr %0, sepc" : "=r" (x) );
    80001dc2:	14102773          	csrr	a4,sepc
    80001dc6:	ef98                	sd	a4,24(a5)
  asm volatile("csrr %0, scause" : "=r" (x) );
    80001dc8:	14202773          	csrr	a4,scause
  if(r_scause() == 8){
    80001dcc:	47a1                	li	a5,8
    80001dce:	06f71063          	bne	a4,a5,80001e2e <usertrap+0xa0>
    if(p->killed)
    80001dd2:	551c                	lw	a5,40(a0)
    80001dd4:	e7b9                	bnez	a5,80001e22 <usertrap+0x94>
    p->trapframe->epc += 4;
    80001dd6:	6cb8                	ld	a4,88(s1)
    80001dd8:	6f1c                	ld	a5,24(a4)
    80001dda:	0791                	addi	a5,a5,4
    80001ddc:	ef1c                	sd	a5,24(a4)
  asm volatile("csrr %0, sstatus" : "=r" (x) );
    80001dde:	100027f3          	csrr	a5,sstatus
  w_sstatus(r_sstatus() | SSTATUS_SIE);
    80001de2:	0027e793          	ori	a5,a5,2
  asm volatile("csrw sstatus, %0" : : "r" (x));
    80001de6:	10079073          	csrw	sstatus,a5
    syscall();
    80001dea:	00000097          	auipc	ra,0x0
    80001dee:	3ae080e7          	jalr	942(ra) # 80002198 <syscall>
  if(p->killed)
    80001df2:	549c                	lw	a5,40(s1)
    80001df4:	14079f63          	bnez	a5,80001f52 <usertrap+0x1c4>
  usertrapret();
    80001df8:	00000097          	auipc	ra,0x0
    80001dfc:	e10080e7          	jalr	-496(ra) # 80001c08 <usertrapret>
}
    80001e00:	70e2                	ld	ra,56(sp)
    80001e02:	7442                	ld	s0,48(sp)
    80001e04:	74a2                	ld	s1,40(sp)
    80001e06:	7902                	ld	s2,32(sp)
    80001e08:	69e2                	ld	s3,24(sp)
    80001e0a:	6a42                	ld	s4,16(sp)
    80001e0c:	6aa2                	ld	s5,8(sp)
    80001e0e:	6121                	addi	sp,sp,64
    80001e10:	8082                	ret
    panic("usertrap: not from user mode");
    80001e12:	00006517          	auipc	a0,0x6
    80001e16:	4b650513          	addi	a0,a0,1206 # 800082c8 <states.1717+0x58>
    80001e1a:	00004097          	auipc	ra,0x4
    80001e1e:	f2e080e7          	jalr	-210(ra) # 80005d48 <panic>
      exit(-1);
    80001e22:	557d                	li	a0,-1
    80001e24:	00000097          	auipc	ra,0x0
    80001e28:	a98080e7          	jalr	-1384(ra) # 800018bc <exit>
    80001e2c:	b76d                	j	80001dd6 <usertrap+0x48>
  } else if((which_dev = devintr()) != 0){
    80001e2e:	00000097          	auipc	ra,0x0
    80001e32:	ebe080e7          	jalr	-322(ra) # 80001cec <devintr>
    80001e36:	892a                	mv	s2,a0
    80001e38:	10051a63          	bnez	a0,80001f4c <usertrap+0x1be>
  asm volatile("csrr %0, stval" : "=r" (x) );
    80001e3c:	143029f3          	csrr	s3,stval
      uint64 va = PGROUNDDOWN(r_stval());
    80001e40:	77fd                	lui	a5,0xfffff
    80001e42:	00f9f9b3          	and	s3,s3,a5
      if(va >= MAXVA){
    80001e46:	57fd                	li	a5,-1
    80001e48:	83e9                	srli	a5,a5,0x1a
    80001e4a:	0737eb63          	bltu	a5,s3,80001ec0 <usertrap+0x132>
      pte_t* pte = walk(p->pagetable,va,0);
    80001e4e:	4601                	li	a2,0
    80001e50:	85ce                	mv	a1,s3
    80001e52:	68a8                	ld	a0,80(s1)
    80001e54:	ffffe097          	auipc	ra,0xffffe
    80001e58:	6de080e7          	jalr	1758(ra) # 80000532 <walk>
    80001e5c:	89aa                	mv	s3,a0
      if(pte == 0){
    80001e5e:	c92d                	beqz	a0,80001ed0 <usertrap+0x142>
  asm volatile("csrr %0, scause" : "=r" (x) );
    80001e60:	14202773          	csrr	a4,scause
      if((r_scause() == 13 || r_scause() == 15) && (flag & PTE_C) ){
    80001e64:	47b5                	li	a5,13
    80001e66:	06f70d63          	beq	a4,a5,80001ee0 <usertrap+0x152>
    80001e6a:	14202773          	csrr	a4,scause
    80001e6e:	47bd                	li	a5,15
    80001e70:	06f70863          	beq	a4,a5,80001ee0 <usertrap+0x152>
    80001e74:	142025f3          	csrr	a1,scause
          printf("usertrap(): unexpected scause %p pid=%d\n", r_scause(), p->pid);
    80001e78:	5890                	lw	a2,48(s1)
    80001e7a:	00006517          	auipc	a0,0x6
    80001e7e:	47650513          	addi	a0,a0,1142 # 800082f0 <states.1717+0x80>
    80001e82:	00004097          	auipc	ra,0x4
    80001e86:	f10080e7          	jalr	-240(ra) # 80005d92 <printf>
  asm volatile("csrr %0, sepc" : "=r" (x) );
    80001e8a:	141025f3          	csrr	a1,sepc
  asm volatile("csrr %0, stval" : "=r" (x) );
    80001e8e:	14302673          	csrr	a2,stval
          printf("            sepc=%p stval=%p\n", r_sepc(), r_stval());
    80001e92:	00006517          	auipc	a0,0x6
    80001e96:	48e50513          	addi	a0,a0,1166 # 80008320 <states.1717+0xb0>
    80001e9a:	00004097          	auipc	ra,0x4
    80001e9e:	ef8080e7          	jalr	-264(ra) # 80005d92 <printf>
          p->killed = 1;
    80001ea2:	4785                	li	a5,1
    80001ea4:	d49c                	sw	a5,40(s1)
    exit(-1);
    80001ea6:	557d                	li	a0,-1
    80001ea8:	00000097          	auipc	ra,0x0
    80001eac:	a14080e7          	jalr	-1516(ra) # 800018bc <exit>
  if(which_dev == 2)
    80001eb0:	4789                	li	a5,2
    80001eb2:	f4f913e3          	bne	s2,a5,80001df8 <usertrap+0x6a>
    yield();
    80001eb6:	fffff097          	auipc	ra,0xfffff
    80001eba:	76e080e7          	jalr	1902(ra) # 80001624 <yield>
    80001ebe:	bf2d                	j	80001df8 <usertrap+0x6a>
          p->killed = 1;
    80001ec0:	4785                	li	a5,1
    80001ec2:	d49c                	sw	a5,40(s1)
          exit(-1);
    80001ec4:	557d                	li	a0,-1
    80001ec6:	00000097          	auipc	ra,0x0
    80001eca:	9f6080e7          	jalr	-1546(ra) # 800018bc <exit>
    80001ece:	b741                	j	80001e4e <usertrap+0xc0>
          p->killed = 1;
    80001ed0:	4785                	li	a5,1
    80001ed2:	d49c                	sw	a5,40(s1)
          exit(-1);
    80001ed4:	557d                	li	a0,-1
    80001ed6:	00000097          	auipc	ra,0x0
    80001eda:	9e6080e7          	jalr	-1562(ra) # 800018bc <exit>
    80001ede:	b749                	j	80001e60 <usertrap+0xd2>
      uint64 pa = PTE2PA(*pte);
    80001ee0:	0009ba03          	ld	s4,0(s3)
      if((r_scause() == 13 || r_scause() == 15) && (flag & PTE_C) ){
    80001ee4:	020a7793          	andi	a5,s4,32
    80001ee8:	d7d1                	beqz	a5,80001e74 <usertrap+0xe6>
          char* mem = kalloc();
    80001eea:	ffffe097          	auipc	ra,0xffffe
    80001eee:	2e6080e7          	jalr	742(ra) # 800001d0 <kalloc>
    80001ef2:	892a                	mv	s2,a0
          if(mem == 0){
    80001ef4:	cd05                	beqz	a0,80001f2c <usertrap+0x19e>
      uint64 pa = PTE2PA(*pte);
    80001ef6:	00aa5a93          	srli	s5,s4,0xa
    80001efa:	0ab2                	slli	s5,s5,0xc
          memmove(mem,(char*)pa,PGSIZE);
    80001efc:	6605                	lui	a2,0x1
    80001efe:	85d6                	mv	a1,s5
    80001f00:	854a                	mv	a0,s2
    80001f02:	ffffe097          	auipc	ra,0xffffe
    80001f06:	3a8080e7          	jalr	936(ra) # 800002aa <memmove>
          kfree((char*)pa);
    80001f0a:	8556                	mv	a0,s5
    80001f0c:	ffffe097          	auipc	ra,0xffffe
    80001f10:	160080e7          	jalr	352(ra) # 8000006c <kfree>
          *pte = PA2PTE(mem) | (flag & ~PTE_C) | PTE_W;
    80001f14:	00c95793          	srli	a5,s2,0xc
    80001f18:	07aa                	slli	a5,a5,0xa
    80001f1a:	3dfa7a13          	andi	s4,s4,991
    80001f1e:	0147e7b3          	or	a5,a5,s4
    80001f22:	0047e793          	ori	a5,a5,4
    80001f26:	00f9b023          	sd	a5,0(s3)
      if((r_scause() == 13 || r_scause() == 15) && (flag & PTE_C) ){
    80001f2a:	b5e1                	j	80001df2 <usertrap+0x64>
              printf("here\n");
    80001f2c:	00006517          	auipc	a0,0x6
    80001f30:	3bc50513          	addi	a0,a0,956 # 800082e8 <states.1717+0x78>
    80001f34:	00004097          	auipc	ra,0x4
    80001f38:	e5e080e7          	jalr	-418(ra) # 80005d92 <printf>
              p->killed = 1;
    80001f3c:	4785                	li	a5,1
    80001f3e:	d49c                	sw	a5,40(s1)
              exit(-1);
    80001f40:	557d                	li	a0,-1
    80001f42:	00000097          	auipc	ra,0x0
    80001f46:	97a080e7          	jalr	-1670(ra) # 800018bc <exit>
    80001f4a:	b775                	j	80001ef6 <usertrap+0x168>
  if(p->killed)
    80001f4c:	549c                	lw	a5,40(s1)
    80001f4e:	d3ad                	beqz	a5,80001eb0 <usertrap+0x122>
    80001f50:	bf99                	j	80001ea6 <usertrap+0x118>
    80001f52:	4901                	li	s2,0
    80001f54:	bf89                	j	80001ea6 <usertrap+0x118>

0000000080001f56 <kerneltrap>:
{
    80001f56:	7179                	addi	sp,sp,-48
    80001f58:	f406                	sd	ra,40(sp)
    80001f5a:	f022                	sd	s0,32(sp)
    80001f5c:	ec26                	sd	s1,24(sp)
    80001f5e:	e84a                	sd	s2,16(sp)
    80001f60:	e44e                	sd	s3,8(sp)
    80001f62:	1800                	addi	s0,sp,48
  asm volatile("csrr %0, sepc" : "=r" (x) );
    80001f64:	14102973          	csrr	s2,sepc
  asm volatile("csrr %0, sstatus" : "=r" (x) );
    80001f68:	100024f3          	csrr	s1,sstatus
  asm volatile("csrr %0, scause" : "=r" (x) );
    80001f6c:	142029f3          	csrr	s3,scause
  if((sstatus & SSTATUS_SPP) == 0)
    80001f70:	1004f793          	andi	a5,s1,256
    80001f74:	cb85                	beqz	a5,80001fa4 <kerneltrap+0x4e>
  asm volatile("csrr %0, sstatus" : "=r" (x) );
    80001f76:	100027f3          	csrr	a5,sstatus
  return (x & SSTATUS_SIE) != 0;
    80001f7a:	8b89                	andi	a5,a5,2
  if(intr_get() != 0)
    80001f7c:	ef85                	bnez	a5,80001fb4 <kerneltrap+0x5e>
  if((which_dev = devintr()) == 0){
    80001f7e:	00000097          	auipc	ra,0x0
    80001f82:	d6e080e7          	jalr	-658(ra) # 80001cec <devintr>
    80001f86:	cd1d                	beqz	a0,80001fc4 <kerneltrap+0x6e>
  if(which_dev == 2 && myproc() != 0 && myproc()->state == RUNNING)
    80001f88:	4789                	li	a5,2
    80001f8a:	06f50a63          	beq	a0,a5,80001ffe <kerneltrap+0xa8>
  asm volatile("csrw sepc, %0" : : "r" (x));
    80001f8e:	14191073          	csrw	sepc,s2
  asm volatile("csrw sstatus, %0" : : "r" (x));
    80001f92:	10049073          	csrw	sstatus,s1
}
    80001f96:	70a2                	ld	ra,40(sp)
    80001f98:	7402                	ld	s0,32(sp)
    80001f9a:	64e2                	ld	s1,24(sp)
    80001f9c:	6942                	ld	s2,16(sp)
    80001f9e:	69a2                	ld	s3,8(sp)
    80001fa0:	6145                	addi	sp,sp,48
    80001fa2:	8082                	ret
    panic("kerneltrap: not from supervisor mode");
    80001fa4:	00006517          	auipc	a0,0x6
    80001fa8:	39c50513          	addi	a0,a0,924 # 80008340 <states.1717+0xd0>
    80001fac:	00004097          	auipc	ra,0x4
    80001fb0:	d9c080e7          	jalr	-612(ra) # 80005d48 <panic>
    panic("kerneltrap: interrupts enabled");
    80001fb4:	00006517          	auipc	a0,0x6
    80001fb8:	3b450513          	addi	a0,a0,948 # 80008368 <states.1717+0xf8>
    80001fbc:	00004097          	auipc	ra,0x4
    80001fc0:	d8c080e7          	jalr	-628(ra) # 80005d48 <panic>
    printf("scause %p\n", scause);
    80001fc4:	85ce                	mv	a1,s3
    80001fc6:	00006517          	auipc	a0,0x6
    80001fca:	3c250513          	addi	a0,a0,962 # 80008388 <states.1717+0x118>
    80001fce:	00004097          	auipc	ra,0x4
    80001fd2:	dc4080e7          	jalr	-572(ra) # 80005d92 <printf>
  asm volatile("csrr %0, sepc" : "=r" (x) );
    80001fd6:	141025f3          	csrr	a1,sepc
  asm volatile("csrr %0, stval" : "=r" (x) );
    80001fda:	14302673          	csrr	a2,stval
    printf("sepc=%p stval=%p\n", r_sepc(), r_stval());
    80001fde:	00006517          	auipc	a0,0x6
    80001fe2:	3ba50513          	addi	a0,a0,954 # 80008398 <states.1717+0x128>
    80001fe6:	00004097          	auipc	ra,0x4
    80001fea:	dac080e7          	jalr	-596(ra) # 80005d92 <printf>
    panic("kerneltrap");
    80001fee:	00006517          	auipc	a0,0x6
    80001ff2:	3c250513          	addi	a0,a0,962 # 800083b0 <states.1717+0x140>
    80001ff6:	00004097          	auipc	ra,0x4
    80001ffa:	d52080e7          	jalr	-686(ra) # 80005d48 <panic>
  if(which_dev == 2 && myproc() != 0 && myproc()->state == RUNNING)
    80001ffe:	fffff097          	auipc	ra,0xfffff
    80002002:	fa6080e7          	jalr	-90(ra) # 80000fa4 <myproc>
    80002006:	d541                	beqz	a0,80001f8e <kerneltrap+0x38>
    80002008:	fffff097          	auipc	ra,0xfffff
    8000200c:	f9c080e7          	jalr	-100(ra) # 80000fa4 <myproc>
    80002010:	4d18                	lw	a4,24(a0)
    80002012:	4791                	li	a5,4
    80002014:	f6f71de3          	bne	a4,a5,80001f8e <kerneltrap+0x38>
    yield();
    80002018:	fffff097          	auipc	ra,0xfffff
    8000201c:	60c080e7          	jalr	1548(ra) # 80001624 <yield>
    80002020:	b7bd                	j	80001f8e <kerneltrap+0x38>

0000000080002022 <argraw>:
  return strlen(buf);
}

static uint64
argraw(int n)
{
    80002022:	1101                	addi	sp,sp,-32
    80002024:	ec06                	sd	ra,24(sp)
    80002026:	e822                	sd	s0,16(sp)
    80002028:	e426                	sd	s1,8(sp)
    8000202a:	1000                	addi	s0,sp,32
    8000202c:	84aa                	mv	s1,a0
  struct proc *p = myproc();
    8000202e:	fffff097          	auipc	ra,0xfffff
    80002032:	f76080e7          	jalr	-138(ra) # 80000fa4 <myproc>
  switch (n) {
    80002036:	4795                	li	a5,5
    80002038:	0497e163          	bltu	a5,s1,8000207a <argraw+0x58>
    8000203c:	048a                	slli	s1,s1,0x2
    8000203e:	00006717          	auipc	a4,0x6
    80002042:	3aa70713          	addi	a4,a4,938 # 800083e8 <states.1717+0x178>
    80002046:	94ba                	add	s1,s1,a4
    80002048:	409c                	lw	a5,0(s1)
    8000204a:	97ba                	add	a5,a5,a4
    8000204c:	8782                	jr	a5
  case 0:
    return p->trapframe->a0;
    8000204e:	6d3c                	ld	a5,88(a0)
    80002050:	7ba8                	ld	a0,112(a5)
  case 5:
    return p->trapframe->a5;
  }
  panic("argraw");
  return -1;
}
    80002052:	60e2                	ld	ra,24(sp)
    80002054:	6442                	ld	s0,16(sp)
    80002056:	64a2                	ld	s1,8(sp)
    80002058:	6105                	addi	sp,sp,32
    8000205a:	8082                	ret
    return p->trapframe->a1;
    8000205c:	6d3c                	ld	a5,88(a0)
    8000205e:	7fa8                	ld	a0,120(a5)
    80002060:	bfcd                	j	80002052 <argraw+0x30>
    return p->trapframe->a2;
    80002062:	6d3c                	ld	a5,88(a0)
    80002064:	63c8                	ld	a0,128(a5)
    80002066:	b7f5                	j	80002052 <argraw+0x30>
    return p->trapframe->a3;
    80002068:	6d3c                	ld	a5,88(a0)
    8000206a:	67c8                	ld	a0,136(a5)
    8000206c:	b7dd                	j	80002052 <argraw+0x30>
    return p->trapframe->a4;
    8000206e:	6d3c                	ld	a5,88(a0)
    80002070:	6bc8                	ld	a0,144(a5)
    80002072:	b7c5                	j	80002052 <argraw+0x30>
    return p->trapframe->a5;
    80002074:	6d3c                	ld	a5,88(a0)
    80002076:	6fc8                	ld	a0,152(a5)
    80002078:	bfe9                	j	80002052 <argraw+0x30>
  panic("argraw");
    8000207a:	00006517          	auipc	a0,0x6
    8000207e:	34650513          	addi	a0,a0,838 # 800083c0 <states.1717+0x150>
    80002082:	00004097          	auipc	ra,0x4
    80002086:	cc6080e7          	jalr	-826(ra) # 80005d48 <panic>

000000008000208a <fetchaddr>:
{
    8000208a:	1101                	addi	sp,sp,-32
    8000208c:	ec06                	sd	ra,24(sp)
    8000208e:	e822                	sd	s0,16(sp)
    80002090:	e426                	sd	s1,8(sp)
    80002092:	e04a                	sd	s2,0(sp)
    80002094:	1000                	addi	s0,sp,32
    80002096:	84aa                	mv	s1,a0
    80002098:	892e                	mv	s2,a1
  struct proc *p = myproc();
    8000209a:	fffff097          	auipc	ra,0xfffff
    8000209e:	f0a080e7          	jalr	-246(ra) # 80000fa4 <myproc>
  if(addr >= p->sz || addr+sizeof(uint64) > p->sz)
    800020a2:	653c                	ld	a5,72(a0)
    800020a4:	02f4f863          	bgeu	s1,a5,800020d4 <fetchaddr+0x4a>
    800020a8:	00848713          	addi	a4,s1,8
    800020ac:	02e7e663          	bltu	a5,a4,800020d8 <fetchaddr+0x4e>
  if(copyin(p->pagetable, (char *)ip, addr, sizeof(*ip)) != 0)
    800020b0:	46a1                	li	a3,8
    800020b2:	8626                	mv	a2,s1
    800020b4:	85ca                	mv	a1,s2
    800020b6:	6928                	ld	a0,80(a0)
    800020b8:	fffff097          	auipc	ra,0xfffff
    800020bc:	c3a080e7          	jalr	-966(ra) # 80000cf2 <copyin>
    800020c0:	00a03533          	snez	a0,a0
    800020c4:	40a00533          	neg	a0,a0
}
    800020c8:	60e2                	ld	ra,24(sp)
    800020ca:	6442                	ld	s0,16(sp)
    800020cc:	64a2                	ld	s1,8(sp)
    800020ce:	6902                	ld	s2,0(sp)
    800020d0:	6105                	addi	sp,sp,32
    800020d2:	8082                	ret
    return -1;
    800020d4:	557d                	li	a0,-1
    800020d6:	bfcd                	j	800020c8 <fetchaddr+0x3e>
    800020d8:	557d                	li	a0,-1
    800020da:	b7fd                	j	800020c8 <fetchaddr+0x3e>

00000000800020dc <fetchstr>:
{
    800020dc:	7179                	addi	sp,sp,-48
    800020de:	f406                	sd	ra,40(sp)
    800020e0:	f022                	sd	s0,32(sp)
    800020e2:	ec26                	sd	s1,24(sp)
    800020e4:	e84a                	sd	s2,16(sp)
    800020e6:	e44e                	sd	s3,8(sp)
    800020e8:	1800                	addi	s0,sp,48
    800020ea:	892a                	mv	s2,a0
    800020ec:	84ae                	mv	s1,a1
    800020ee:	89b2                	mv	s3,a2
  struct proc *p = myproc();
    800020f0:	fffff097          	auipc	ra,0xfffff
    800020f4:	eb4080e7          	jalr	-332(ra) # 80000fa4 <myproc>
  int err = copyinstr(p->pagetable, buf, addr, max);
    800020f8:	86ce                	mv	a3,s3
    800020fa:	864a                	mv	a2,s2
    800020fc:	85a6                	mv	a1,s1
    800020fe:	6928                	ld	a0,80(a0)
    80002100:	fffff097          	auipc	ra,0xfffff
    80002104:	c7e080e7          	jalr	-898(ra) # 80000d7e <copyinstr>
  if(err < 0)
    80002108:	00054763          	bltz	a0,80002116 <fetchstr+0x3a>
  return strlen(buf);
    8000210c:	8526                	mv	a0,s1
    8000210e:	ffffe097          	auipc	ra,0xffffe
    80002112:	2c0080e7          	jalr	704(ra) # 800003ce <strlen>
}
    80002116:	70a2                	ld	ra,40(sp)
    80002118:	7402                	ld	s0,32(sp)
    8000211a:	64e2                	ld	s1,24(sp)
    8000211c:	6942                	ld	s2,16(sp)
    8000211e:	69a2                	ld	s3,8(sp)
    80002120:	6145                	addi	sp,sp,48
    80002122:	8082                	ret

0000000080002124 <argint>:

// Fetch the nth 32-bit system call argument.
int
argint(int n, int *ip)
{
    80002124:	1101                	addi	sp,sp,-32
    80002126:	ec06                	sd	ra,24(sp)
    80002128:	e822                	sd	s0,16(sp)
    8000212a:	e426                	sd	s1,8(sp)
    8000212c:	1000                	addi	s0,sp,32
    8000212e:	84ae                	mv	s1,a1
  *ip = argraw(n);
    80002130:	00000097          	auipc	ra,0x0
    80002134:	ef2080e7          	jalr	-270(ra) # 80002022 <argraw>
    80002138:	c088                	sw	a0,0(s1)
  return 0;
}
    8000213a:	4501                	li	a0,0
    8000213c:	60e2                	ld	ra,24(sp)
    8000213e:	6442                	ld	s0,16(sp)
    80002140:	64a2                	ld	s1,8(sp)
    80002142:	6105                	addi	sp,sp,32
    80002144:	8082                	ret

0000000080002146 <argaddr>:
// Retrieve an argument as a pointer.
// Doesn't check for legality, since
// copyin/copyout will do that.
int
argaddr(int n, uint64 *ip)
{
    80002146:	1101                	addi	sp,sp,-32
    80002148:	ec06                	sd	ra,24(sp)
    8000214a:	e822                	sd	s0,16(sp)
    8000214c:	e426                	sd	s1,8(sp)
    8000214e:	1000                	addi	s0,sp,32
    80002150:	84ae                	mv	s1,a1
  *ip = argraw(n);
    80002152:	00000097          	auipc	ra,0x0
    80002156:	ed0080e7          	jalr	-304(ra) # 80002022 <argraw>
    8000215a:	e088                	sd	a0,0(s1)
  return 0;
}
    8000215c:	4501                	li	a0,0
    8000215e:	60e2                	ld	ra,24(sp)
    80002160:	6442                	ld	s0,16(sp)
    80002162:	64a2                	ld	s1,8(sp)
    80002164:	6105                	addi	sp,sp,32
    80002166:	8082                	ret

0000000080002168 <argstr>:
// Fetch the nth word-sized system call argument as a null-terminated string.
// Copies into buf, at most max.
// Returns string length if OK (including nul), -1 if error.
int
argstr(int n, char *buf, int max)
{
    80002168:	1101                	addi	sp,sp,-32
    8000216a:	ec06                	sd	ra,24(sp)
    8000216c:	e822                	sd	s0,16(sp)
    8000216e:	e426                	sd	s1,8(sp)
    80002170:	e04a                	sd	s2,0(sp)
    80002172:	1000                	addi	s0,sp,32
    80002174:	84ae                	mv	s1,a1
    80002176:	8932                	mv	s2,a2
  *ip = argraw(n);
    80002178:	00000097          	auipc	ra,0x0
    8000217c:	eaa080e7          	jalr	-342(ra) # 80002022 <argraw>
  uint64 addr;
  if(argaddr(n, &addr) < 0)
    return -1;
  return fetchstr(addr, buf, max);
    80002180:	864a                	mv	a2,s2
    80002182:	85a6                	mv	a1,s1
    80002184:	00000097          	auipc	ra,0x0
    80002188:	f58080e7          	jalr	-168(ra) # 800020dc <fetchstr>
}
    8000218c:	60e2                	ld	ra,24(sp)
    8000218e:	6442                	ld	s0,16(sp)
    80002190:	64a2                	ld	s1,8(sp)
    80002192:	6902                	ld	s2,0(sp)
    80002194:	6105                	addi	sp,sp,32
    80002196:	8082                	ret

0000000080002198 <syscall>:
[SYS_close]   sys_close,
};

void
syscall(void)
{
    80002198:	1101                	addi	sp,sp,-32
    8000219a:	ec06                	sd	ra,24(sp)
    8000219c:	e822                	sd	s0,16(sp)
    8000219e:	e426                	sd	s1,8(sp)
    800021a0:	e04a                	sd	s2,0(sp)
    800021a2:	1000                	addi	s0,sp,32
  int num;
  struct proc *p = myproc();
    800021a4:	fffff097          	auipc	ra,0xfffff
    800021a8:	e00080e7          	jalr	-512(ra) # 80000fa4 <myproc>
    800021ac:	84aa                	mv	s1,a0

  num = p->trapframe->a7;
    800021ae:	05853903          	ld	s2,88(a0)
    800021b2:	0a893783          	ld	a5,168(s2)
    800021b6:	0007869b          	sext.w	a3,a5
  if(num > 0 && num < NELEM(syscalls) && syscalls[num]) {
    800021ba:	37fd                	addiw	a5,a5,-1
    800021bc:	4751                	li	a4,20
    800021be:	00f76f63          	bltu	a4,a5,800021dc <syscall+0x44>
    800021c2:	00369713          	slli	a4,a3,0x3
    800021c6:	00006797          	auipc	a5,0x6
    800021ca:	23a78793          	addi	a5,a5,570 # 80008400 <syscalls>
    800021ce:	97ba                	add	a5,a5,a4
    800021d0:	639c                	ld	a5,0(a5)
    800021d2:	c789                	beqz	a5,800021dc <syscall+0x44>
    p->trapframe->a0 = syscalls[num]();
    800021d4:	9782                	jalr	a5
    800021d6:	06a93823          	sd	a0,112(s2)
    800021da:	a839                	j	800021f8 <syscall+0x60>
  } else {
    printf("%d %s: unknown sys call %d\n",
    800021dc:	15848613          	addi	a2,s1,344
    800021e0:	588c                	lw	a1,48(s1)
    800021e2:	00006517          	auipc	a0,0x6
    800021e6:	1e650513          	addi	a0,a0,486 # 800083c8 <states.1717+0x158>
    800021ea:	00004097          	auipc	ra,0x4
    800021ee:	ba8080e7          	jalr	-1112(ra) # 80005d92 <printf>
            p->pid, p->name, num);
    p->trapframe->a0 = -1;
    800021f2:	6cbc                	ld	a5,88(s1)
    800021f4:	577d                	li	a4,-1
    800021f6:	fbb8                	sd	a4,112(a5)
  }
}
    800021f8:	60e2                	ld	ra,24(sp)
    800021fa:	6442                	ld	s0,16(sp)
    800021fc:	64a2                	ld	s1,8(sp)
    800021fe:	6902                	ld	s2,0(sp)
    80002200:	6105                	addi	sp,sp,32
    80002202:	8082                	ret

0000000080002204 <sys_exit>:
#include "spinlock.h"
#include "proc.h"

uint64
sys_exit(void)
{
    80002204:	1101                	addi	sp,sp,-32
    80002206:	ec06                	sd	ra,24(sp)
    80002208:	e822                	sd	s0,16(sp)
    8000220a:	1000                	addi	s0,sp,32
  int n;
  if(argint(0, &n) < 0)
    8000220c:	fec40593          	addi	a1,s0,-20
    80002210:	4501                	li	a0,0
    80002212:	00000097          	auipc	ra,0x0
    80002216:	f12080e7          	jalr	-238(ra) # 80002124 <argint>
    return -1;
    8000221a:	57fd                	li	a5,-1
  if(argint(0, &n) < 0)
    8000221c:	00054963          	bltz	a0,8000222e <sys_exit+0x2a>
  exit(n);
    80002220:	fec42503          	lw	a0,-20(s0)
    80002224:	fffff097          	auipc	ra,0xfffff
    80002228:	698080e7          	jalr	1688(ra) # 800018bc <exit>
  return 0;  // not reached
    8000222c:	4781                	li	a5,0
}
    8000222e:	853e                	mv	a0,a5
    80002230:	60e2                	ld	ra,24(sp)
    80002232:	6442                	ld	s0,16(sp)
    80002234:	6105                	addi	sp,sp,32
    80002236:	8082                	ret

0000000080002238 <sys_getpid>:

uint64
sys_getpid(void)
{
    80002238:	1141                	addi	sp,sp,-16
    8000223a:	e406                	sd	ra,8(sp)
    8000223c:	e022                	sd	s0,0(sp)
    8000223e:	0800                	addi	s0,sp,16
  return myproc()->pid;
    80002240:	fffff097          	auipc	ra,0xfffff
    80002244:	d64080e7          	jalr	-668(ra) # 80000fa4 <myproc>
}
    80002248:	5908                	lw	a0,48(a0)
    8000224a:	60a2                	ld	ra,8(sp)
    8000224c:	6402                	ld	s0,0(sp)
    8000224e:	0141                	addi	sp,sp,16
    80002250:	8082                	ret

0000000080002252 <sys_fork>:

uint64
sys_fork(void)
{
    80002252:	1141                	addi	sp,sp,-16
    80002254:	e406                	sd	ra,8(sp)
    80002256:	e022                	sd	s0,0(sp)
    80002258:	0800                	addi	s0,sp,16
  return fork();
    8000225a:	fffff097          	auipc	ra,0xfffff
    8000225e:	118080e7          	jalr	280(ra) # 80001372 <fork>
}
    80002262:	60a2                	ld	ra,8(sp)
    80002264:	6402                	ld	s0,0(sp)
    80002266:	0141                	addi	sp,sp,16
    80002268:	8082                	ret

000000008000226a <sys_wait>:

uint64
sys_wait(void)
{
    8000226a:	1101                	addi	sp,sp,-32
    8000226c:	ec06                	sd	ra,24(sp)
    8000226e:	e822                	sd	s0,16(sp)
    80002270:	1000                	addi	s0,sp,32
  uint64 p;
  if(argaddr(0, &p) < 0)
    80002272:	fe840593          	addi	a1,s0,-24
    80002276:	4501                	li	a0,0
    80002278:	00000097          	auipc	ra,0x0
    8000227c:	ece080e7          	jalr	-306(ra) # 80002146 <argaddr>
    80002280:	87aa                	mv	a5,a0
    return -1;
    80002282:	557d                	li	a0,-1
  if(argaddr(0, &p) < 0)
    80002284:	0007c863          	bltz	a5,80002294 <sys_wait+0x2a>
  return wait(p);
    80002288:	fe843503          	ld	a0,-24(s0)
    8000228c:	fffff097          	auipc	ra,0xfffff
    80002290:	438080e7          	jalr	1080(ra) # 800016c4 <wait>
}
    80002294:	60e2                	ld	ra,24(sp)
    80002296:	6442                	ld	s0,16(sp)
    80002298:	6105                	addi	sp,sp,32
    8000229a:	8082                	ret

000000008000229c <sys_sbrk>:

uint64
sys_sbrk(void)
{
    8000229c:	7179                	addi	sp,sp,-48
    8000229e:	f406                	sd	ra,40(sp)
    800022a0:	f022                	sd	s0,32(sp)
    800022a2:	ec26                	sd	s1,24(sp)
    800022a4:	1800                	addi	s0,sp,48
  int addr;
  int n;

  if(argint(0, &n) < 0)
    800022a6:	fdc40593          	addi	a1,s0,-36
    800022aa:	4501                	li	a0,0
    800022ac:	00000097          	auipc	ra,0x0
    800022b0:	e78080e7          	jalr	-392(ra) # 80002124 <argint>
    800022b4:	87aa                	mv	a5,a0
    return -1;
    800022b6:	557d                	li	a0,-1
  if(argint(0, &n) < 0)
    800022b8:	0207c063          	bltz	a5,800022d8 <sys_sbrk+0x3c>
  addr = myproc()->sz;
    800022bc:	fffff097          	auipc	ra,0xfffff
    800022c0:	ce8080e7          	jalr	-792(ra) # 80000fa4 <myproc>
    800022c4:	4524                	lw	s1,72(a0)
  if(growproc(n) < 0)
    800022c6:	fdc42503          	lw	a0,-36(s0)
    800022ca:	fffff097          	auipc	ra,0xfffff
    800022ce:	034080e7          	jalr	52(ra) # 800012fe <growproc>
    800022d2:	00054863          	bltz	a0,800022e2 <sys_sbrk+0x46>
    return -1;
  return addr;
    800022d6:	8526                	mv	a0,s1
}
    800022d8:	70a2                	ld	ra,40(sp)
    800022da:	7402                	ld	s0,32(sp)
    800022dc:	64e2                	ld	s1,24(sp)
    800022de:	6145                	addi	sp,sp,48
    800022e0:	8082                	ret
    return -1;
    800022e2:	557d                	li	a0,-1
    800022e4:	bfd5                	j	800022d8 <sys_sbrk+0x3c>

00000000800022e6 <sys_sleep>:

uint64
sys_sleep(void)
{
    800022e6:	7139                	addi	sp,sp,-64
    800022e8:	fc06                	sd	ra,56(sp)
    800022ea:	f822                	sd	s0,48(sp)
    800022ec:	f426                	sd	s1,40(sp)
    800022ee:	f04a                	sd	s2,32(sp)
    800022f0:	ec4e                	sd	s3,24(sp)
    800022f2:	0080                	addi	s0,sp,64
  int n;
  uint ticks0;

  if(argint(0, &n) < 0)
    800022f4:	fcc40593          	addi	a1,s0,-52
    800022f8:	4501                	li	a0,0
    800022fa:	00000097          	auipc	ra,0x0
    800022fe:	e2a080e7          	jalr	-470(ra) # 80002124 <argint>
    return -1;
    80002302:	57fd                	li	a5,-1
  if(argint(0, &n) < 0)
    80002304:	06054563          	bltz	a0,8000236e <sys_sleep+0x88>
  acquire(&tickslock);
    80002308:	0002d517          	auipc	a0,0x2d
    8000230c:	b7850513          	addi	a0,a0,-1160 # 8002ee80 <tickslock>
    80002310:	00004097          	auipc	ra,0x4
    80002314:	f82080e7          	jalr	-126(ra) # 80006292 <acquire>
  ticks0 = ticks;
    80002318:	00007917          	auipc	s2,0x7
    8000231c:	d0092903          	lw	s2,-768(s2) # 80009018 <ticks>
  while(ticks - ticks0 < n){
    80002320:	fcc42783          	lw	a5,-52(s0)
    80002324:	cf85                	beqz	a5,8000235c <sys_sleep+0x76>
    if(myproc()->killed){
      release(&tickslock);
      return -1;
    }
    sleep(&ticks, &tickslock);
    80002326:	0002d997          	auipc	s3,0x2d
    8000232a:	b5a98993          	addi	s3,s3,-1190 # 8002ee80 <tickslock>
    8000232e:	00007497          	auipc	s1,0x7
    80002332:	cea48493          	addi	s1,s1,-790 # 80009018 <ticks>
    if(myproc()->killed){
    80002336:	fffff097          	auipc	ra,0xfffff
    8000233a:	c6e080e7          	jalr	-914(ra) # 80000fa4 <myproc>
    8000233e:	551c                	lw	a5,40(a0)
    80002340:	ef9d                	bnez	a5,8000237e <sys_sleep+0x98>
    sleep(&ticks, &tickslock);
    80002342:	85ce                	mv	a1,s3
    80002344:	8526                	mv	a0,s1
    80002346:	fffff097          	auipc	ra,0xfffff
    8000234a:	31a080e7          	jalr	794(ra) # 80001660 <sleep>
  while(ticks - ticks0 < n){
    8000234e:	409c                	lw	a5,0(s1)
    80002350:	412787bb          	subw	a5,a5,s2
    80002354:	fcc42703          	lw	a4,-52(s0)
    80002358:	fce7efe3          	bltu	a5,a4,80002336 <sys_sleep+0x50>
  }
  release(&tickslock);
    8000235c:	0002d517          	auipc	a0,0x2d
    80002360:	b2450513          	addi	a0,a0,-1244 # 8002ee80 <tickslock>
    80002364:	00004097          	auipc	ra,0x4
    80002368:	fe2080e7          	jalr	-30(ra) # 80006346 <release>
  return 0;
    8000236c:	4781                	li	a5,0
}
    8000236e:	853e                	mv	a0,a5
    80002370:	70e2                	ld	ra,56(sp)
    80002372:	7442                	ld	s0,48(sp)
    80002374:	74a2                	ld	s1,40(sp)
    80002376:	7902                	ld	s2,32(sp)
    80002378:	69e2                	ld	s3,24(sp)
    8000237a:	6121                	addi	sp,sp,64
    8000237c:	8082                	ret
      release(&tickslock);
    8000237e:	0002d517          	auipc	a0,0x2d
    80002382:	b0250513          	addi	a0,a0,-1278 # 8002ee80 <tickslock>
    80002386:	00004097          	auipc	ra,0x4
    8000238a:	fc0080e7          	jalr	-64(ra) # 80006346 <release>
      return -1;
    8000238e:	57fd                	li	a5,-1
    80002390:	bff9                	j	8000236e <sys_sleep+0x88>

0000000080002392 <sys_kill>:

uint64
sys_kill(void)
{
    80002392:	1101                	addi	sp,sp,-32
    80002394:	ec06                	sd	ra,24(sp)
    80002396:	e822                	sd	s0,16(sp)
    80002398:	1000                	addi	s0,sp,32
  int pid;

  if(argint(0, &pid) < 0)
    8000239a:	fec40593          	addi	a1,s0,-20
    8000239e:	4501                	li	a0,0
    800023a0:	00000097          	auipc	ra,0x0
    800023a4:	d84080e7          	jalr	-636(ra) # 80002124 <argint>
    800023a8:	87aa                	mv	a5,a0
    return -1;
    800023aa:	557d                	li	a0,-1
  if(argint(0, &pid) < 0)
    800023ac:	0007c863          	bltz	a5,800023bc <sys_kill+0x2a>
  return kill(pid);
    800023b0:	fec42503          	lw	a0,-20(s0)
    800023b4:	fffff097          	auipc	ra,0xfffff
    800023b8:	5de080e7          	jalr	1502(ra) # 80001992 <kill>
}
    800023bc:	60e2                	ld	ra,24(sp)
    800023be:	6442                	ld	s0,16(sp)
    800023c0:	6105                	addi	sp,sp,32
    800023c2:	8082                	ret

00000000800023c4 <sys_uptime>:

// return how many clock tick interrupts have occurred
// since start.
uint64
sys_uptime(void)
{
    800023c4:	1101                	addi	sp,sp,-32
    800023c6:	ec06                	sd	ra,24(sp)
    800023c8:	e822                	sd	s0,16(sp)
    800023ca:	e426                	sd	s1,8(sp)
    800023cc:	1000                	addi	s0,sp,32
  uint xticks;

  acquire(&tickslock);
    800023ce:	0002d517          	auipc	a0,0x2d
    800023d2:	ab250513          	addi	a0,a0,-1358 # 8002ee80 <tickslock>
    800023d6:	00004097          	auipc	ra,0x4
    800023da:	ebc080e7          	jalr	-324(ra) # 80006292 <acquire>
  xticks = ticks;
    800023de:	00007497          	auipc	s1,0x7
    800023e2:	c3a4a483          	lw	s1,-966(s1) # 80009018 <ticks>
  release(&tickslock);
    800023e6:	0002d517          	auipc	a0,0x2d
    800023ea:	a9a50513          	addi	a0,a0,-1382 # 8002ee80 <tickslock>
    800023ee:	00004097          	auipc	ra,0x4
    800023f2:	f58080e7          	jalr	-168(ra) # 80006346 <release>
  return xticks;
}
    800023f6:	02049513          	slli	a0,s1,0x20
    800023fa:	9101                	srli	a0,a0,0x20
    800023fc:	60e2                	ld	ra,24(sp)
    800023fe:	6442                	ld	s0,16(sp)
    80002400:	64a2                	ld	s1,8(sp)
    80002402:	6105                	addi	sp,sp,32
    80002404:	8082                	ret

0000000080002406 <binit>:
  struct buf head;
} bcache;

void
binit(void)
{
    80002406:	7179                	addi	sp,sp,-48
    80002408:	f406                	sd	ra,40(sp)
    8000240a:	f022                	sd	s0,32(sp)
    8000240c:	ec26                	sd	s1,24(sp)
    8000240e:	e84a                	sd	s2,16(sp)
    80002410:	e44e                	sd	s3,8(sp)
    80002412:	e052                	sd	s4,0(sp)
    80002414:	1800                	addi	s0,sp,48
  struct buf *b;

  initlock(&bcache.lock, "bcache");
    80002416:	00006597          	auipc	a1,0x6
    8000241a:	09a58593          	addi	a1,a1,154 # 800084b0 <syscalls+0xb0>
    8000241e:	0002d517          	auipc	a0,0x2d
    80002422:	a7a50513          	addi	a0,a0,-1414 # 8002ee98 <bcache>
    80002426:	00004097          	auipc	ra,0x4
    8000242a:	ddc080e7          	jalr	-548(ra) # 80006202 <initlock>

  // Create linked list of buffers
  bcache.head.prev = &bcache.head;
    8000242e:	00035797          	auipc	a5,0x35
    80002432:	a6a78793          	addi	a5,a5,-1430 # 80036e98 <bcache+0x8000>
    80002436:	00035717          	auipc	a4,0x35
    8000243a:	cca70713          	addi	a4,a4,-822 # 80037100 <bcache+0x8268>
    8000243e:	2ae7b823          	sd	a4,688(a5)
  bcache.head.next = &bcache.head;
    80002442:	2ae7bc23          	sd	a4,696(a5)
  for(b = bcache.buf; b < bcache.buf+NBUF; b++){
    80002446:	0002d497          	auipc	s1,0x2d
    8000244a:	a6a48493          	addi	s1,s1,-1430 # 8002eeb0 <bcache+0x18>
    b->next = bcache.head.next;
    8000244e:	893e                	mv	s2,a5
    b->prev = &bcache.head;
    80002450:	89ba                	mv	s3,a4
    initsleeplock(&b->lock, "buffer");
    80002452:	00006a17          	auipc	s4,0x6
    80002456:	066a0a13          	addi	s4,s4,102 # 800084b8 <syscalls+0xb8>
    b->next = bcache.head.next;
    8000245a:	2b893783          	ld	a5,696(s2)
    8000245e:	e8bc                	sd	a5,80(s1)
    b->prev = &bcache.head;
    80002460:	0534b423          	sd	s3,72(s1)
    initsleeplock(&b->lock, "buffer");
    80002464:	85d2                	mv	a1,s4
    80002466:	01048513          	addi	a0,s1,16
    8000246a:	00001097          	auipc	ra,0x1
    8000246e:	4bc080e7          	jalr	1212(ra) # 80003926 <initsleeplock>
    bcache.head.next->prev = b;
    80002472:	2b893783          	ld	a5,696(s2)
    80002476:	e7a4                	sd	s1,72(a5)
    bcache.head.next = b;
    80002478:	2a993c23          	sd	s1,696(s2)
  for(b = bcache.buf; b < bcache.buf+NBUF; b++){
    8000247c:	45848493          	addi	s1,s1,1112
    80002480:	fd349de3          	bne	s1,s3,8000245a <binit+0x54>
  }
}
    80002484:	70a2                	ld	ra,40(sp)
    80002486:	7402                	ld	s0,32(sp)
    80002488:	64e2                	ld	s1,24(sp)
    8000248a:	6942                	ld	s2,16(sp)
    8000248c:	69a2                	ld	s3,8(sp)
    8000248e:	6a02                	ld	s4,0(sp)
    80002490:	6145                	addi	sp,sp,48
    80002492:	8082                	ret

0000000080002494 <bread>:
}

// Return a locked buf with the contents of the indicated block.
struct buf*
bread(uint dev, uint blockno)
{
    80002494:	7179                	addi	sp,sp,-48
    80002496:	f406                	sd	ra,40(sp)
    80002498:	f022                	sd	s0,32(sp)
    8000249a:	ec26                	sd	s1,24(sp)
    8000249c:	e84a                	sd	s2,16(sp)
    8000249e:	e44e                	sd	s3,8(sp)
    800024a0:	1800                	addi	s0,sp,48
    800024a2:	89aa                	mv	s3,a0
    800024a4:	892e                	mv	s2,a1
  acquire(&bcache.lock);
    800024a6:	0002d517          	auipc	a0,0x2d
    800024aa:	9f250513          	addi	a0,a0,-1550 # 8002ee98 <bcache>
    800024ae:	00004097          	auipc	ra,0x4
    800024b2:	de4080e7          	jalr	-540(ra) # 80006292 <acquire>
  for(b = bcache.head.next; b != &bcache.head; b = b->next){
    800024b6:	00035497          	auipc	s1,0x35
    800024ba:	c9a4b483          	ld	s1,-870(s1) # 80037150 <bcache+0x82b8>
    800024be:	00035797          	auipc	a5,0x35
    800024c2:	c4278793          	addi	a5,a5,-958 # 80037100 <bcache+0x8268>
    800024c6:	02f48f63          	beq	s1,a5,80002504 <bread+0x70>
    800024ca:	873e                	mv	a4,a5
    800024cc:	a021                	j	800024d4 <bread+0x40>
    800024ce:	68a4                	ld	s1,80(s1)
    800024d0:	02e48a63          	beq	s1,a4,80002504 <bread+0x70>
    if(b->dev == dev && b->blockno == blockno){
    800024d4:	449c                	lw	a5,8(s1)
    800024d6:	ff379ce3          	bne	a5,s3,800024ce <bread+0x3a>
    800024da:	44dc                	lw	a5,12(s1)
    800024dc:	ff2799e3          	bne	a5,s2,800024ce <bread+0x3a>
      b->refcnt++;
    800024e0:	40bc                	lw	a5,64(s1)
    800024e2:	2785                	addiw	a5,a5,1
    800024e4:	c0bc                	sw	a5,64(s1)
      release(&bcache.lock);
    800024e6:	0002d517          	auipc	a0,0x2d
    800024ea:	9b250513          	addi	a0,a0,-1614 # 8002ee98 <bcache>
    800024ee:	00004097          	auipc	ra,0x4
    800024f2:	e58080e7          	jalr	-424(ra) # 80006346 <release>
      acquiresleep(&b->lock);
    800024f6:	01048513          	addi	a0,s1,16
    800024fa:	00001097          	auipc	ra,0x1
    800024fe:	466080e7          	jalr	1126(ra) # 80003960 <acquiresleep>
      return b;
    80002502:	a8b9                	j	80002560 <bread+0xcc>
  for(b = bcache.head.prev; b != &bcache.head; b = b->prev){
    80002504:	00035497          	auipc	s1,0x35
    80002508:	c444b483          	ld	s1,-956(s1) # 80037148 <bcache+0x82b0>
    8000250c:	00035797          	auipc	a5,0x35
    80002510:	bf478793          	addi	a5,a5,-1036 # 80037100 <bcache+0x8268>
    80002514:	00f48863          	beq	s1,a5,80002524 <bread+0x90>
    80002518:	873e                	mv	a4,a5
    if(b->refcnt == 0) {
    8000251a:	40bc                	lw	a5,64(s1)
    8000251c:	cf81                	beqz	a5,80002534 <bread+0xa0>
  for(b = bcache.head.prev; b != &bcache.head; b = b->prev){
    8000251e:	64a4                	ld	s1,72(s1)
    80002520:	fee49de3          	bne	s1,a4,8000251a <bread+0x86>
  panic("bget: no buffers");
    80002524:	00006517          	auipc	a0,0x6
    80002528:	f9c50513          	addi	a0,a0,-100 # 800084c0 <syscalls+0xc0>
    8000252c:	00004097          	auipc	ra,0x4
    80002530:	81c080e7          	jalr	-2020(ra) # 80005d48 <panic>
      b->dev = dev;
    80002534:	0134a423          	sw	s3,8(s1)
      b->blockno = blockno;
    80002538:	0124a623          	sw	s2,12(s1)
      b->valid = 0;
    8000253c:	0004a023          	sw	zero,0(s1)
      b->refcnt = 1;
    80002540:	4785                	li	a5,1
    80002542:	c0bc                	sw	a5,64(s1)
      release(&bcache.lock);
    80002544:	0002d517          	auipc	a0,0x2d
    80002548:	95450513          	addi	a0,a0,-1708 # 8002ee98 <bcache>
    8000254c:	00004097          	auipc	ra,0x4
    80002550:	dfa080e7          	jalr	-518(ra) # 80006346 <release>
      acquiresleep(&b->lock);
    80002554:	01048513          	addi	a0,s1,16
    80002558:	00001097          	auipc	ra,0x1
    8000255c:	408080e7          	jalr	1032(ra) # 80003960 <acquiresleep>
  struct buf *b;

  b = bget(dev, blockno);
  if(!b->valid) {
    80002560:	409c                	lw	a5,0(s1)
    80002562:	cb89                	beqz	a5,80002574 <bread+0xe0>
    virtio_disk_rw(b, 0);
    b->valid = 1;
  }
  return b;
}
    80002564:	8526                	mv	a0,s1
    80002566:	70a2                	ld	ra,40(sp)
    80002568:	7402                	ld	s0,32(sp)
    8000256a:	64e2                	ld	s1,24(sp)
    8000256c:	6942                	ld	s2,16(sp)
    8000256e:	69a2                	ld	s3,8(sp)
    80002570:	6145                	addi	sp,sp,48
    80002572:	8082                	ret
    virtio_disk_rw(b, 0);
    80002574:	4581                	li	a1,0
    80002576:	8526                	mv	a0,s1
    80002578:	00003097          	auipc	ra,0x3
    8000257c:	f0e080e7          	jalr	-242(ra) # 80005486 <virtio_disk_rw>
    b->valid = 1;
    80002580:	4785                	li	a5,1
    80002582:	c09c                	sw	a5,0(s1)
  return b;
    80002584:	b7c5                	j	80002564 <bread+0xd0>

0000000080002586 <bwrite>:

// Write b's contents to disk.  Must be locked.
void
bwrite(struct buf *b)
{
    80002586:	1101                	addi	sp,sp,-32
    80002588:	ec06                	sd	ra,24(sp)
    8000258a:	e822                	sd	s0,16(sp)
    8000258c:	e426                	sd	s1,8(sp)
    8000258e:	1000                	addi	s0,sp,32
    80002590:	84aa                	mv	s1,a0
  if(!holdingsleep(&b->lock))
    80002592:	0541                	addi	a0,a0,16
    80002594:	00001097          	auipc	ra,0x1
    80002598:	466080e7          	jalr	1126(ra) # 800039fa <holdingsleep>
    8000259c:	cd01                	beqz	a0,800025b4 <bwrite+0x2e>
    panic("bwrite");
  virtio_disk_rw(b, 1);
    8000259e:	4585                	li	a1,1
    800025a0:	8526                	mv	a0,s1
    800025a2:	00003097          	auipc	ra,0x3
    800025a6:	ee4080e7          	jalr	-284(ra) # 80005486 <virtio_disk_rw>
}
    800025aa:	60e2                	ld	ra,24(sp)
    800025ac:	6442                	ld	s0,16(sp)
    800025ae:	64a2                	ld	s1,8(sp)
    800025b0:	6105                	addi	sp,sp,32
    800025b2:	8082                	ret
    panic("bwrite");
    800025b4:	00006517          	auipc	a0,0x6
    800025b8:	f2450513          	addi	a0,a0,-220 # 800084d8 <syscalls+0xd8>
    800025bc:	00003097          	auipc	ra,0x3
    800025c0:	78c080e7          	jalr	1932(ra) # 80005d48 <panic>

00000000800025c4 <brelse>:

// Release a locked buffer.
// Move to the head of the most-recently-used list.
void
brelse(struct buf *b)
{
    800025c4:	1101                	addi	sp,sp,-32
    800025c6:	ec06                	sd	ra,24(sp)
    800025c8:	e822                	sd	s0,16(sp)
    800025ca:	e426                	sd	s1,8(sp)
    800025cc:	e04a                	sd	s2,0(sp)
    800025ce:	1000                	addi	s0,sp,32
    800025d0:	84aa                	mv	s1,a0
  if(!holdingsleep(&b->lock))
    800025d2:	01050913          	addi	s2,a0,16
    800025d6:	854a                	mv	a0,s2
    800025d8:	00001097          	auipc	ra,0x1
    800025dc:	422080e7          	jalr	1058(ra) # 800039fa <holdingsleep>
    800025e0:	c92d                	beqz	a0,80002652 <brelse+0x8e>
    panic("brelse");

  releasesleep(&b->lock);
    800025e2:	854a                	mv	a0,s2
    800025e4:	00001097          	auipc	ra,0x1
    800025e8:	3d2080e7          	jalr	978(ra) # 800039b6 <releasesleep>

  acquire(&bcache.lock);
    800025ec:	0002d517          	auipc	a0,0x2d
    800025f0:	8ac50513          	addi	a0,a0,-1876 # 8002ee98 <bcache>
    800025f4:	00004097          	auipc	ra,0x4
    800025f8:	c9e080e7          	jalr	-866(ra) # 80006292 <acquire>
  b->refcnt--;
    800025fc:	40bc                	lw	a5,64(s1)
    800025fe:	37fd                	addiw	a5,a5,-1
    80002600:	0007871b          	sext.w	a4,a5
    80002604:	c0bc                	sw	a5,64(s1)
  if (b->refcnt == 0) {
    80002606:	eb05                	bnez	a4,80002636 <brelse+0x72>
    // no one is waiting for it.
    b->next->prev = b->prev;
    80002608:	68bc                	ld	a5,80(s1)
    8000260a:	64b8                	ld	a4,72(s1)
    8000260c:	e7b8                	sd	a4,72(a5)
    b->prev->next = b->next;
    8000260e:	64bc                	ld	a5,72(s1)
    80002610:	68b8                	ld	a4,80(s1)
    80002612:	ebb8                	sd	a4,80(a5)
    b->next = bcache.head.next;
    80002614:	00035797          	auipc	a5,0x35
    80002618:	88478793          	addi	a5,a5,-1916 # 80036e98 <bcache+0x8000>
    8000261c:	2b87b703          	ld	a4,696(a5)
    80002620:	e8b8                	sd	a4,80(s1)
    b->prev = &bcache.head;
    80002622:	00035717          	auipc	a4,0x35
    80002626:	ade70713          	addi	a4,a4,-1314 # 80037100 <bcache+0x8268>
    8000262a:	e4b8                	sd	a4,72(s1)
    bcache.head.next->prev = b;
    8000262c:	2b87b703          	ld	a4,696(a5)
    80002630:	e724                	sd	s1,72(a4)
    bcache.head.next = b;
    80002632:	2a97bc23          	sd	s1,696(a5)
  }
  
  release(&bcache.lock);
    80002636:	0002d517          	auipc	a0,0x2d
    8000263a:	86250513          	addi	a0,a0,-1950 # 8002ee98 <bcache>
    8000263e:	00004097          	auipc	ra,0x4
    80002642:	d08080e7          	jalr	-760(ra) # 80006346 <release>
}
    80002646:	60e2                	ld	ra,24(sp)
    80002648:	6442                	ld	s0,16(sp)
    8000264a:	64a2                	ld	s1,8(sp)
    8000264c:	6902                	ld	s2,0(sp)
    8000264e:	6105                	addi	sp,sp,32
    80002650:	8082                	ret
    panic("brelse");
    80002652:	00006517          	auipc	a0,0x6
    80002656:	e8e50513          	addi	a0,a0,-370 # 800084e0 <syscalls+0xe0>
    8000265a:	00003097          	auipc	ra,0x3
    8000265e:	6ee080e7          	jalr	1774(ra) # 80005d48 <panic>

0000000080002662 <bpin>:

void
bpin(struct buf *b) {
    80002662:	1101                	addi	sp,sp,-32
    80002664:	ec06                	sd	ra,24(sp)
    80002666:	e822                	sd	s0,16(sp)
    80002668:	e426                	sd	s1,8(sp)
    8000266a:	1000                	addi	s0,sp,32
    8000266c:	84aa                	mv	s1,a0
  acquire(&bcache.lock);
    8000266e:	0002d517          	auipc	a0,0x2d
    80002672:	82a50513          	addi	a0,a0,-2006 # 8002ee98 <bcache>
    80002676:	00004097          	auipc	ra,0x4
    8000267a:	c1c080e7          	jalr	-996(ra) # 80006292 <acquire>
  b->refcnt++;
    8000267e:	40bc                	lw	a5,64(s1)
    80002680:	2785                	addiw	a5,a5,1
    80002682:	c0bc                	sw	a5,64(s1)
  release(&bcache.lock);
    80002684:	0002d517          	auipc	a0,0x2d
    80002688:	81450513          	addi	a0,a0,-2028 # 8002ee98 <bcache>
    8000268c:	00004097          	auipc	ra,0x4
    80002690:	cba080e7          	jalr	-838(ra) # 80006346 <release>
}
    80002694:	60e2                	ld	ra,24(sp)
    80002696:	6442                	ld	s0,16(sp)
    80002698:	64a2                	ld	s1,8(sp)
    8000269a:	6105                	addi	sp,sp,32
    8000269c:	8082                	ret

000000008000269e <bunpin>:

void
bunpin(struct buf *b) {
    8000269e:	1101                	addi	sp,sp,-32
    800026a0:	ec06                	sd	ra,24(sp)
    800026a2:	e822                	sd	s0,16(sp)
    800026a4:	e426                	sd	s1,8(sp)
    800026a6:	1000                	addi	s0,sp,32
    800026a8:	84aa                	mv	s1,a0
  acquire(&bcache.lock);
    800026aa:	0002c517          	auipc	a0,0x2c
    800026ae:	7ee50513          	addi	a0,a0,2030 # 8002ee98 <bcache>
    800026b2:	00004097          	auipc	ra,0x4
    800026b6:	be0080e7          	jalr	-1056(ra) # 80006292 <acquire>
  b->refcnt--;
    800026ba:	40bc                	lw	a5,64(s1)
    800026bc:	37fd                	addiw	a5,a5,-1
    800026be:	c0bc                	sw	a5,64(s1)
  release(&bcache.lock);
    800026c0:	0002c517          	auipc	a0,0x2c
    800026c4:	7d850513          	addi	a0,a0,2008 # 8002ee98 <bcache>
    800026c8:	00004097          	auipc	ra,0x4
    800026cc:	c7e080e7          	jalr	-898(ra) # 80006346 <release>
}
    800026d0:	60e2                	ld	ra,24(sp)
    800026d2:	6442                	ld	s0,16(sp)
    800026d4:	64a2                	ld	s1,8(sp)
    800026d6:	6105                	addi	sp,sp,32
    800026d8:	8082                	ret

00000000800026da <bfree>:
}

// Free a disk block.
static void
bfree(int dev, uint b)
{
    800026da:	1101                	addi	sp,sp,-32
    800026dc:	ec06                	sd	ra,24(sp)
    800026de:	e822                	sd	s0,16(sp)
    800026e0:	e426                	sd	s1,8(sp)
    800026e2:	e04a                	sd	s2,0(sp)
    800026e4:	1000                	addi	s0,sp,32
    800026e6:	84ae                	mv	s1,a1
  struct buf *bp;
  int bi, m;

  bp = bread(dev, BBLOCK(b, sb));
    800026e8:	00d5d59b          	srliw	a1,a1,0xd
    800026ec:	00035797          	auipc	a5,0x35
    800026f0:	e887a783          	lw	a5,-376(a5) # 80037574 <sb+0x1c>
    800026f4:	9dbd                	addw	a1,a1,a5
    800026f6:	00000097          	auipc	ra,0x0
    800026fa:	d9e080e7          	jalr	-610(ra) # 80002494 <bread>
  bi = b % BPB;
  m = 1 << (bi % 8);
    800026fe:	0074f713          	andi	a4,s1,7
    80002702:	4785                	li	a5,1
    80002704:	00e797bb          	sllw	a5,a5,a4
  if((bp->data[bi/8] & m) == 0)
    80002708:	14ce                	slli	s1,s1,0x33
    8000270a:	90d9                	srli	s1,s1,0x36
    8000270c:	00950733          	add	a4,a0,s1
    80002710:	05874703          	lbu	a4,88(a4)
    80002714:	00e7f6b3          	and	a3,a5,a4
    80002718:	c69d                	beqz	a3,80002746 <bfree+0x6c>
    8000271a:	892a                	mv	s2,a0
    panic("freeing free block");
  bp->data[bi/8] &= ~m;
    8000271c:	94aa                	add	s1,s1,a0
    8000271e:	fff7c793          	not	a5,a5
    80002722:	8ff9                	and	a5,a5,a4
    80002724:	04f48c23          	sb	a5,88(s1)
  log_write(bp);
    80002728:	00001097          	auipc	ra,0x1
    8000272c:	118080e7          	jalr	280(ra) # 80003840 <log_write>
  brelse(bp);
    80002730:	854a                	mv	a0,s2
    80002732:	00000097          	auipc	ra,0x0
    80002736:	e92080e7          	jalr	-366(ra) # 800025c4 <brelse>
}
    8000273a:	60e2                	ld	ra,24(sp)
    8000273c:	6442                	ld	s0,16(sp)
    8000273e:	64a2                	ld	s1,8(sp)
    80002740:	6902                	ld	s2,0(sp)
    80002742:	6105                	addi	sp,sp,32
    80002744:	8082                	ret
    panic("freeing free block");
    80002746:	00006517          	auipc	a0,0x6
    8000274a:	da250513          	addi	a0,a0,-606 # 800084e8 <syscalls+0xe8>
    8000274e:	00003097          	auipc	ra,0x3
    80002752:	5fa080e7          	jalr	1530(ra) # 80005d48 <panic>

0000000080002756 <balloc>:
{
    80002756:	711d                	addi	sp,sp,-96
    80002758:	ec86                	sd	ra,88(sp)
    8000275a:	e8a2                	sd	s0,80(sp)
    8000275c:	e4a6                	sd	s1,72(sp)
    8000275e:	e0ca                	sd	s2,64(sp)
    80002760:	fc4e                	sd	s3,56(sp)
    80002762:	f852                	sd	s4,48(sp)
    80002764:	f456                	sd	s5,40(sp)
    80002766:	f05a                	sd	s6,32(sp)
    80002768:	ec5e                	sd	s7,24(sp)
    8000276a:	e862                	sd	s8,16(sp)
    8000276c:	e466                	sd	s9,8(sp)
    8000276e:	1080                	addi	s0,sp,96
  for(b = 0; b < sb.size; b += BPB){
    80002770:	00035797          	auipc	a5,0x35
    80002774:	dec7a783          	lw	a5,-532(a5) # 8003755c <sb+0x4>
    80002778:	cbd1                	beqz	a5,8000280c <balloc+0xb6>
    8000277a:	8baa                	mv	s7,a0
    8000277c:	4a81                	li	s5,0
    bp = bread(dev, BBLOCK(b, sb));
    8000277e:	00035b17          	auipc	s6,0x35
    80002782:	ddab0b13          	addi	s6,s6,-550 # 80037558 <sb>
    for(bi = 0; bi < BPB && b + bi < sb.size; bi++){
    80002786:	4c01                	li	s8,0
      m = 1 << (bi % 8);
    80002788:	4985                	li	s3,1
    for(bi = 0; bi < BPB && b + bi < sb.size; bi++){
    8000278a:	6a09                	lui	s4,0x2
  for(b = 0; b < sb.size; b += BPB){
    8000278c:	6c89                	lui	s9,0x2
    8000278e:	a831                	j	800027aa <balloc+0x54>
    brelse(bp);
    80002790:	854a                	mv	a0,s2
    80002792:	00000097          	auipc	ra,0x0
    80002796:	e32080e7          	jalr	-462(ra) # 800025c4 <brelse>
  for(b = 0; b < sb.size; b += BPB){
    8000279a:	015c87bb          	addw	a5,s9,s5
    8000279e:	00078a9b          	sext.w	s5,a5
    800027a2:	004b2703          	lw	a4,4(s6)
    800027a6:	06eaf363          	bgeu	s5,a4,8000280c <balloc+0xb6>
    bp = bread(dev, BBLOCK(b, sb));
    800027aa:	41fad79b          	sraiw	a5,s5,0x1f
    800027ae:	0137d79b          	srliw	a5,a5,0x13
    800027b2:	015787bb          	addw	a5,a5,s5
    800027b6:	40d7d79b          	sraiw	a5,a5,0xd
    800027ba:	01cb2583          	lw	a1,28(s6)
    800027be:	9dbd                	addw	a1,a1,a5
    800027c0:	855e                	mv	a0,s7
    800027c2:	00000097          	auipc	ra,0x0
    800027c6:	cd2080e7          	jalr	-814(ra) # 80002494 <bread>
    800027ca:	892a                	mv	s2,a0
    for(bi = 0; bi < BPB && b + bi < sb.size; bi++){
    800027cc:	004b2503          	lw	a0,4(s6)
    800027d0:	000a849b          	sext.w	s1,s5
    800027d4:	8662                	mv	a2,s8
    800027d6:	faa4fde3          	bgeu	s1,a0,80002790 <balloc+0x3a>
      m = 1 << (bi % 8);
    800027da:	41f6579b          	sraiw	a5,a2,0x1f
    800027de:	01d7d69b          	srliw	a3,a5,0x1d
    800027e2:	00c6873b          	addw	a4,a3,a2
    800027e6:	00777793          	andi	a5,a4,7
    800027ea:	9f95                	subw	a5,a5,a3
    800027ec:	00f997bb          	sllw	a5,s3,a5
      if((bp->data[bi/8] & m) == 0){  // Is block free?
    800027f0:	4037571b          	sraiw	a4,a4,0x3
    800027f4:	00e906b3          	add	a3,s2,a4
    800027f8:	0586c683          	lbu	a3,88(a3)
    800027fc:	00d7f5b3          	and	a1,a5,a3
    80002800:	cd91                	beqz	a1,8000281c <balloc+0xc6>
    for(bi = 0; bi < BPB && b + bi < sb.size; bi++){
    80002802:	2605                	addiw	a2,a2,1
    80002804:	2485                	addiw	s1,s1,1
    80002806:	fd4618e3          	bne	a2,s4,800027d6 <balloc+0x80>
    8000280a:	b759                	j	80002790 <balloc+0x3a>
  panic("balloc: out of blocks");
    8000280c:	00006517          	auipc	a0,0x6
    80002810:	cf450513          	addi	a0,a0,-780 # 80008500 <syscalls+0x100>
    80002814:	00003097          	auipc	ra,0x3
    80002818:	534080e7          	jalr	1332(ra) # 80005d48 <panic>
        bp->data[bi/8] |= m;  // Mark block in use.
    8000281c:	974a                	add	a4,a4,s2
    8000281e:	8fd5                	or	a5,a5,a3
    80002820:	04f70c23          	sb	a5,88(a4)
        log_write(bp);
    80002824:	854a                	mv	a0,s2
    80002826:	00001097          	auipc	ra,0x1
    8000282a:	01a080e7          	jalr	26(ra) # 80003840 <log_write>
        brelse(bp);
    8000282e:	854a                	mv	a0,s2
    80002830:	00000097          	auipc	ra,0x0
    80002834:	d94080e7          	jalr	-620(ra) # 800025c4 <brelse>
  bp = bread(dev, bno);
    80002838:	85a6                	mv	a1,s1
    8000283a:	855e                	mv	a0,s7
    8000283c:	00000097          	auipc	ra,0x0
    80002840:	c58080e7          	jalr	-936(ra) # 80002494 <bread>
    80002844:	892a                	mv	s2,a0
  memset(bp->data, 0, BSIZE);
    80002846:	40000613          	li	a2,1024
    8000284a:	4581                	li	a1,0
    8000284c:	05850513          	addi	a0,a0,88
    80002850:	ffffe097          	auipc	ra,0xffffe
    80002854:	9fa080e7          	jalr	-1542(ra) # 8000024a <memset>
  log_write(bp);
    80002858:	854a                	mv	a0,s2
    8000285a:	00001097          	auipc	ra,0x1
    8000285e:	fe6080e7          	jalr	-26(ra) # 80003840 <log_write>
  brelse(bp);
    80002862:	854a                	mv	a0,s2
    80002864:	00000097          	auipc	ra,0x0
    80002868:	d60080e7          	jalr	-672(ra) # 800025c4 <brelse>
}
    8000286c:	8526                	mv	a0,s1
    8000286e:	60e6                	ld	ra,88(sp)
    80002870:	6446                	ld	s0,80(sp)
    80002872:	64a6                	ld	s1,72(sp)
    80002874:	6906                	ld	s2,64(sp)
    80002876:	79e2                	ld	s3,56(sp)
    80002878:	7a42                	ld	s4,48(sp)
    8000287a:	7aa2                	ld	s5,40(sp)
    8000287c:	7b02                	ld	s6,32(sp)
    8000287e:	6be2                	ld	s7,24(sp)
    80002880:	6c42                	ld	s8,16(sp)
    80002882:	6ca2                	ld	s9,8(sp)
    80002884:	6125                	addi	sp,sp,96
    80002886:	8082                	ret

0000000080002888 <bmap>:

// Return the disk block address of the nth block in inode ip.
// If there is no such block, bmap allocates one.
static uint
bmap(struct inode *ip, uint bn)
{
    80002888:	7179                	addi	sp,sp,-48
    8000288a:	f406                	sd	ra,40(sp)
    8000288c:	f022                	sd	s0,32(sp)
    8000288e:	ec26                	sd	s1,24(sp)
    80002890:	e84a                	sd	s2,16(sp)
    80002892:	e44e                	sd	s3,8(sp)
    80002894:	e052                	sd	s4,0(sp)
    80002896:	1800                	addi	s0,sp,48
    80002898:	892a                	mv	s2,a0
  uint addr, *a;
  struct buf *bp;

  if(bn < NDIRECT){
    8000289a:	47ad                	li	a5,11
    8000289c:	04b7fe63          	bgeu	a5,a1,800028f8 <bmap+0x70>
    if((addr = ip->addrs[bn]) == 0)
      ip->addrs[bn] = addr = balloc(ip->dev);
    return addr;
  }
  bn -= NDIRECT;
    800028a0:	ff45849b          	addiw	s1,a1,-12
    800028a4:	0004871b          	sext.w	a4,s1

  if(bn < NINDIRECT){
    800028a8:	0ff00793          	li	a5,255
    800028ac:	0ae7e363          	bltu	a5,a4,80002952 <bmap+0xca>
    // Load indirect block, allocating if necessary.
    if((addr = ip->addrs[NDIRECT]) == 0)
    800028b0:	08052583          	lw	a1,128(a0)
    800028b4:	c5ad                	beqz	a1,8000291e <bmap+0x96>
      ip->addrs[NDIRECT] = addr = balloc(ip->dev);
    bp = bread(ip->dev, addr);
    800028b6:	00092503          	lw	a0,0(s2)
    800028ba:	00000097          	auipc	ra,0x0
    800028be:	bda080e7          	jalr	-1062(ra) # 80002494 <bread>
    800028c2:	8a2a                	mv	s4,a0
    a = (uint*)bp->data;
    800028c4:	05850793          	addi	a5,a0,88
    if((addr = a[bn]) == 0){
    800028c8:	02049593          	slli	a1,s1,0x20
    800028cc:	9181                	srli	a1,a1,0x20
    800028ce:	058a                	slli	a1,a1,0x2
    800028d0:	00b784b3          	add	s1,a5,a1
    800028d4:	0004a983          	lw	s3,0(s1)
    800028d8:	04098d63          	beqz	s3,80002932 <bmap+0xaa>
      a[bn] = addr = balloc(ip->dev);
      log_write(bp);
    }
    brelse(bp);
    800028dc:	8552                	mv	a0,s4
    800028de:	00000097          	auipc	ra,0x0
    800028e2:	ce6080e7          	jalr	-794(ra) # 800025c4 <brelse>
    return addr;
  }

  panic("bmap: out of range");
}
    800028e6:	854e                	mv	a0,s3
    800028e8:	70a2                	ld	ra,40(sp)
    800028ea:	7402                	ld	s0,32(sp)
    800028ec:	64e2                	ld	s1,24(sp)
    800028ee:	6942                	ld	s2,16(sp)
    800028f0:	69a2                	ld	s3,8(sp)
    800028f2:	6a02                	ld	s4,0(sp)
    800028f4:	6145                	addi	sp,sp,48
    800028f6:	8082                	ret
    if((addr = ip->addrs[bn]) == 0)
    800028f8:	02059493          	slli	s1,a1,0x20
    800028fc:	9081                	srli	s1,s1,0x20
    800028fe:	048a                	slli	s1,s1,0x2
    80002900:	94aa                	add	s1,s1,a0
    80002902:	0504a983          	lw	s3,80(s1)
    80002906:	fe0990e3          	bnez	s3,800028e6 <bmap+0x5e>
      ip->addrs[bn] = addr = balloc(ip->dev);
    8000290a:	4108                	lw	a0,0(a0)
    8000290c:	00000097          	auipc	ra,0x0
    80002910:	e4a080e7          	jalr	-438(ra) # 80002756 <balloc>
    80002914:	0005099b          	sext.w	s3,a0
    80002918:	0534a823          	sw	s3,80(s1)
    8000291c:	b7e9                	j	800028e6 <bmap+0x5e>
      ip->addrs[NDIRECT] = addr = balloc(ip->dev);
    8000291e:	4108                	lw	a0,0(a0)
    80002920:	00000097          	auipc	ra,0x0
    80002924:	e36080e7          	jalr	-458(ra) # 80002756 <balloc>
    80002928:	0005059b          	sext.w	a1,a0
    8000292c:	08b92023          	sw	a1,128(s2)
    80002930:	b759                	j	800028b6 <bmap+0x2e>
      a[bn] = addr = balloc(ip->dev);
    80002932:	00092503          	lw	a0,0(s2)
    80002936:	00000097          	auipc	ra,0x0
    8000293a:	e20080e7          	jalr	-480(ra) # 80002756 <balloc>
    8000293e:	0005099b          	sext.w	s3,a0
    80002942:	0134a023          	sw	s3,0(s1)
      log_write(bp);
    80002946:	8552                	mv	a0,s4
    80002948:	00001097          	auipc	ra,0x1
    8000294c:	ef8080e7          	jalr	-264(ra) # 80003840 <log_write>
    80002950:	b771                	j	800028dc <bmap+0x54>
  panic("bmap: out of range");
    80002952:	00006517          	auipc	a0,0x6
    80002956:	bc650513          	addi	a0,a0,-1082 # 80008518 <syscalls+0x118>
    8000295a:	00003097          	auipc	ra,0x3
    8000295e:	3ee080e7          	jalr	1006(ra) # 80005d48 <panic>

0000000080002962 <iget>:
{
    80002962:	7179                	addi	sp,sp,-48
    80002964:	f406                	sd	ra,40(sp)
    80002966:	f022                	sd	s0,32(sp)
    80002968:	ec26                	sd	s1,24(sp)
    8000296a:	e84a                	sd	s2,16(sp)
    8000296c:	e44e                	sd	s3,8(sp)
    8000296e:	e052                	sd	s4,0(sp)
    80002970:	1800                	addi	s0,sp,48
    80002972:	89aa                	mv	s3,a0
    80002974:	8a2e                	mv	s4,a1
  acquire(&itable.lock);
    80002976:	00035517          	auipc	a0,0x35
    8000297a:	c0250513          	addi	a0,a0,-1022 # 80037578 <itable>
    8000297e:	00004097          	auipc	ra,0x4
    80002982:	914080e7          	jalr	-1772(ra) # 80006292 <acquire>
  empty = 0;
    80002986:	4901                	li	s2,0
  for(ip = &itable.inode[0]; ip < &itable.inode[NINODE]; ip++){
    80002988:	00035497          	auipc	s1,0x35
    8000298c:	c0848493          	addi	s1,s1,-1016 # 80037590 <itable+0x18>
    80002990:	00036697          	auipc	a3,0x36
    80002994:	69068693          	addi	a3,a3,1680 # 80039020 <log>
    80002998:	a039                	j	800029a6 <iget+0x44>
    if(empty == 0 && ip->ref == 0)    // Remember empty slot.
    8000299a:	02090b63          	beqz	s2,800029d0 <iget+0x6e>
  for(ip = &itable.inode[0]; ip < &itable.inode[NINODE]; ip++){
    8000299e:	08848493          	addi	s1,s1,136
    800029a2:	02d48a63          	beq	s1,a3,800029d6 <iget+0x74>
    if(ip->ref > 0 && ip->dev == dev && ip->inum == inum){
    800029a6:	449c                	lw	a5,8(s1)
    800029a8:	fef059e3          	blez	a5,8000299a <iget+0x38>
    800029ac:	4098                	lw	a4,0(s1)
    800029ae:	ff3716e3          	bne	a4,s3,8000299a <iget+0x38>
    800029b2:	40d8                	lw	a4,4(s1)
    800029b4:	ff4713e3          	bne	a4,s4,8000299a <iget+0x38>
      ip->ref++;
    800029b8:	2785                	addiw	a5,a5,1
    800029ba:	c49c                	sw	a5,8(s1)
      release(&itable.lock);
    800029bc:	00035517          	auipc	a0,0x35
    800029c0:	bbc50513          	addi	a0,a0,-1092 # 80037578 <itable>
    800029c4:	00004097          	auipc	ra,0x4
    800029c8:	982080e7          	jalr	-1662(ra) # 80006346 <release>
      return ip;
    800029cc:	8926                	mv	s2,s1
    800029ce:	a03d                	j	800029fc <iget+0x9a>
    if(empty == 0 && ip->ref == 0)    // Remember empty slot.
    800029d0:	f7f9                	bnez	a5,8000299e <iget+0x3c>
    800029d2:	8926                	mv	s2,s1
    800029d4:	b7e9                	j	8000299e <iget+0x3c>
  if(empty == 0)
    800029d6:	02090c63          	beqz	s2,80002a0e <iget+0xac>
  ip->dev = dev;
    800029da:	01392023          	sw	s3,0(s2)
  ip->inum = inum;
    800029de:	01492223          	sw	s4,4(s2)
  ip->ref = 1;
    800029e2:	4785                	li	a5,1
    800029e4:	00f92423          	sw	a5,8(s2)
  ip->valid = 0;
    800029e8:	04092023          	sw	zero,64(s2)
  release(&itable.lock);
    800029ec:	00035517          	auipc	a0,0x35
    800029f0:	b8c50513          	addi	a0,a0,-1140 # 80037578 <itable>
    800029f4:	00004097          	auipc	ra,0x4
    800029f8:	952080e7          	jalr	-1710(ra) # 80006346 <release>
}
    800029fc:	854a                	mv	a0,s2
    800029fe:	70a2                	ld	ra,40(sp)
    80002a00:	7402                	ld	s0,32(sp)
    80002a02:	64e2                	ld	s1,24(sp)
    80002a04:	6942                	ld	s2,16(sp)
    80002a06:	69a2                	ld	s3,8(sp)
    80002a08:	6a02                	ld	s4,0(sp)
    80002a0a:	6145                	addi	sp,sp,48
    80002a0c:	8082                	ret
    panic("iget: no inodes");
    80002a0e:	00006517          	auipc	a0,0x6
    80002a12:	b2250513          	addi	a0,a0,-1246 # 80008530 <syscalls+0x130>
    80002a16:	00003097          	auipc	ra,0x3
    80002a1a:	332080e7          	jalr	818(ra) # 80005d48 <panic>

0000000080002a1e <fsinit>:
fsinit(int dev) {
    80002a1e:	7179                	addi	sp,sp,-48
    80002a20:	f406                	sd	ra,40(sp)
    80002a22:	f022                	sd	s0,32(sp)
    80002a24:	ec26                	sd	s1,24(sp)
    80002a26:	e84a                	sd	s2,16(sp)
    80002a28:	e44e                	sd	s3,8(sp)
    80002a2a:	1800                	addi	s0,sp,48
    80002a2c:	892a                	mv	s2,a0
  bp = bread(dev, 1);
    80002a2e:	4585                	li	a1,1
    80002a30:	00000097          	auipc	ra,0x0
    80002a34:	a64080e7          	jalr	-1436(ra) # 80002494 <bread>
    80002a38:	84aa                	mv	s1,a0
  memmove(sb, bp->data, sizeof(*sb));
    80002a3a:	00035997          	auipc	s3,0x35
    80002a3e:	b1e98993          	addi	s3,s3,-1250 # 80037558 <sb>
    80002a42:	02000613          	li	a2,32
    80002a46:	05850593          	addi	a1,a0,88
    80002a4a:	854e                	mv	a0,s3
    80002a4c:	ffffe097          	auipc	ra,0xffffe
    80002a50:	85e080e7          	jalr	-1954(ra) # 800002aa <memmove>
  brelse(bp);
    80002a54:	8526                	mv	a0,s1
    80002a56:	00000097          	auipc	ra,0x0
    80002a5a:	b6e080e7          	jalr	-1170(ra) # 800025c4 <brelse>
  if(sb.magic != FSMAGIC)
    80002a5e:	0009a703          	lw	a4,0(s3)
    80002a62:	102037b7          	lui	a5,0x10203
    80002a66:	04078793          	addi	a5,a5,64 # 10203040 <_entry-0x6fdfcfc0>
    80002a6a:	02f71263          	bne	a4,a5,80002a8e <fsinit+0x70>
  initlog(dev, &sb);
    80002a6e:	00035597          	auipc	a1,0x35
    80002a72:	aea58593          	addi	a1,a1,-1302 # 80037558 <sb>
    80002a76:	854a                	mv	a0,s2
    80002a78:	00001097          	auipc	ra,0x1
    80002a7c:	b4c080e7          	jalr	-1204(ra) # 800035c4 <initlog>
}
    80002a80:	70a2                	ld	ra,40(sp)
    80002a82:	7402                	ld	s0,32(sp)
    80002a84:	64e2                	ld	s1,24(sp)
    80002a86:	6942                	ld	s2,16(sp)
    80002a88:	69a2                	ld	s3,8(sp)
    80002a8a:	6145                	addi	sp,sp,48
    80002a8c:	8082                	ret
    panic("invalid file system");
    80002a8e:	00006517          	auipc	a0,0x6
    80002a92:	ab250513          	addi	a0,a0,-1358 # 80008540 <syscalls+0x140>
    80002a96:	00003097          	auipc	ra,0x3
    80002a9a:	2b2080e7          	jalr	690(ra) # 80005d48 <panic>

0000000080002a9e <iinit>:
{
    80002a9e:	7179                	addi	sp,sp,-48
    80002aa0:	f406                	sd	ra,40(sp)
    80002aa2:	f022                	sd	s0,32(sp)
    80002aa4:	ec26                	sd	s1,24(sp)
    80002aa6:	e84a                	sd	s2,16(sp)
    80002aa8:	e44e                	sd	s3,8(sp)
    80002aaa:	1800                	addi	s0,sp,48
  initlock(&itable.lock, "itable");
    80002aac:	00006597          	auipc	a1,0x6
    80002ab0:	aac58593          	addi	a1,a1,-1364 # 80008558 <syscalls+0x158>
    80002ab4:	00035517          	auipc	a0,0x35
    80002ab8:	ac450513          	addi	a0,a0,-1340 # 80037578 <itable>
    80002abc:	00003097          	auipc	ra,0x3
    80002ac0:	746080e7          	jalr	1862(ra) # 80006202 <initlock>
  for(i = 0; i < NINODE; i++) {
    80002ac4:	00035497          	auipc	s1,0x35
    80002ac8:	adc48493          	addi	s1,s1,-1316 # 800375a0 <itable+0x28>
    80002acc:	00036997          	auipc	s3,0x36
    80002ad0:	56498993          	addi	s3,s3,1380 # 80039030 <log+0x10>
    initsleeplock(&itable.inode[i].lock, "inode");
    80002ad4:	00006917          	auipc	s2,0x6
    80002ad8:	a8c90913          	addi	s2,s2,-1396 # 80008560 <syscalls+0x160>
    80002adc:	85ca                	mv	a1,s2
    80002ade:	8526                	mv	a0,s1
    80002ae0:	00001097          	auipc	ra,0x1
    80002ae4:	e46080e7          	jalr	-442(ra) # 80003926 <initsleeplock>
  for(i = 0; i < NINODE; i++) {
    80002ae8:	08848493          	addi	s1,s1,136
    80002aec:	ff3498e3          	bne	s1,s3,80002adc <iinit+0x3e>
}
    80002af0:	70a2                	ld	ra,40(sp)
    80002af2:	7402                	ld	s0,32(sp)
    80002af4:	64e2                	ld	s1,24(sp)
    80002af6:	6942                	ld	s2,16(sp)
    80002af8:	69a2                	ld	s3,8(sp)
    80002afa:	6145                	addi	sp,sp,48
    80002afc:	8082                	ret

0000000080002afe <ialloc>:
{
    80002afe:	715d                	addi	sp,sp,-80
    80002b00:	e486                	sd	ra,72(sp)
    80002b02:	e0a2                	sd	s0,64(sp)
    80002b04:	fc26                	sd	s1,56(sp)
    80002b06:	f84a                	sd	s2,48(sp)
    80002b08:	f44e                	sd	s3,40(sp)
    80002b0a:	f052                	sd	s4,32(sp)
    80002b0c:	ec56                	sd	s5,24(sp)
    80002b0e:	e85a                	sd	s6,16(sp)
    80002b10:	e45e                	sd	s7,8(sp)
    80002b12:	0880                	addi	s0,sp,80
  for(inum = 1; inum < sb.ninodes; inum++){
    80002b14:	00035717          	auipc	a4,0x35
    80002b18:	a5072703          	lw	a4,-1456(a4) # 80037564 <sb+0xc>
    80002b1c:	4785                	li	a5,1
    80002b1e:	04e7fa63          	bgeu	a5,a4,80002b72 <ialloc+0x74>
    80002b22:	8aaa                	mv	s5,a0
    80002b24:	8bae                	mv	s7,a1
    80002b26:	4485                	li	s1,1
    bp = bread(dev, IBLOCK(inum, sb));
    80002b28:	00035a17          	auipc	s4,0x35
    80002b2c:	a30a0a13          	addi	s4,s4,-1488 # 80037558 <sb>
    80002b30:	00048b1b          	sext.w	s6,s1
    80002b34:	0044d593          	srli	a1,s1,0x4
    80002b38:	018a2783          	lw	a5,24(s4)
    80002b3c:	9dbd                	addw	a1,a1,a5
    80002b3e:	8556                	mv	a0,s5
    80002b40:	00000097          	auipc	ra,0x0
    80002b44:	954080e7          	jalr	-1708(ra) # 80002494 <bread>
    80002b48:	892a                	mv	s2,a0
    dip = (struct dinode*)bp->data + inum%IPB;
    80002b4a:	05850993          	addi	s3,a0,88
    80002b4e:	00f4f793          	andi	a5,s1,15
    80002b52:	079a                	slli	a5,a5,0x6
    80002b54:	99be                	add	s3,s3,a5
    if(dip->type == 0){  // a free inode
    80002b56:	00099783          	lh	a5,0(s3)
    80002b5a:	c785                	beqz	a5,80002b82 <ialloc+0x84>
    brelse(bp);
    80002b5c:	00000097          	auipc	ra,0x0
    80002b60:	a68080e7          	jalr	-1432(ra) # 800025c4 <brelse>
  for(inum = 1; inum < sb.ninodes; inum++){
    80002b64:	0485                	addi	s1,s1,1
    80002b66:	00ca2703          	lw	a4,12(s4)
    80002b6a:	0004879b          	sext.w	a5,s1
    80002b6e:	fce7e1e3          	bltu	a5,a4,80002b30 <ialloc+0x32>
  panic("ialloc: no inodes");
    80002b72:	00006517          	auipc	a0,0x6
    80002b76:	9f650513          	addi	a0,a0,-1546 # 80008568 <syscalls+0x168>
    80002b7a:	00003097          	auipc	ra,0x3
    80002b7e:	1ce080e7          	jalr	462(ra) # 80005d48 <panic>
      memset(dip, 0, sizeof(*dip));
    80002b82:	04000613          	li	a2,64
    80002b86:	4581                	li	a1,0
    80002b88:	854e                	mv	a0,s3
    80002b8a:	ffffd097          	auipc	ra,0xffffd
    80002b8e:	6c0080e7          	jalr	1728(ra) # 8000024a <memset>
      dip->type = type;
    80002b92:	01799023          	sh	s7,0(s3)
      log_write(bp);   // mark it allocated on the disk
    80002b96:	854a                	mv	a0,s2
    80002b98:	00001097          	auipc	ra,0x1
    80002b9c:	ca8080e7          	jalr	-856(ra) # 80003840 <log_write>
      brelse(bp);
    80002ba0:	854a                	mv	a0,s2
    80002ba2:	00000097          	auipc	ra,0x0
    80002ba6:	a22080e7          	jalr	-1502(ra) # 800025c4 <brelse>
      return iget(dev, inum);
    80002baa:	85da                	mv	a1,s6
    80002bac:	8556                	mv	a0,s5
    80002bae:	00000097          	auipc	ra,0x0
    80002bb2:	db4080e7          	jalr	-588(ra) # 80002962 <iget>
}
    80002bb6:	60a6                	ld	ra,72(sp)
    80002bb8:	6406                	ld	s0,64(sp)
    80002bba:	74e2                	ld	s1,56(sp)
    80002bbc:	7942                	ld	s2,48(sp)
    80002bbe:	79a2                	ld	s3,40(sp)
    80002bc0:	7a02                	ld	s4,32(sp)
    80002bc2:	6ae2                	ld	s5,24(sp)
    80002bc4:	6b42                	ld	s6,16(sp)
    80002bc6:	6ba2                	ld	s7,8(sp)
    80002bc8:	6161                	addi	sp,sp,80
    80002bca:	8082                	ret

0000000080002bcc <iupdate>:
{
    80002bcc:	1101                	addi	sp,sp,-32
    80002bce:	ec06                	sd	ra,24(sp)
    80002bd0:	e822                	sd	s0,16(sp)
    80002bd2:	e426                	sd	s1,8(sp)
    80002bd4:	e04a                	sd	s2,0(sp)
    80002bd6:	1000                	addi	s0,sp,32
    80002bd8:	84aa                	mv	s1,a0
  bp = bread(ip->dev, IBLOCK(ip->inum, sb));
    80002bda:	415c                	lw	a5,4(a0)
    80002bdc:	0047d79b          	srliw	a5,a5,0x4
    80002be0:	00035597          	auipc	a1,0x35
    80002be4:	9905a583          	lw	a1,-1648(a1) # 80037570 <sb+0x18>
    80002be8:	9dbd                	addw	a1,a1,a5
    80002bea:	4108                	lw	a0,0(a0)
    80002bec:	00000097          	auipc	ra,0x0
    80002bf0:	8a8080e7          	jalr	-1880(ra) # 80002494 <bread>
    80002bf4:	892a                	mv	s2,a0
  dip = (struct dinode*)bp->data + ip->inum%IPB;
    80002bf6:	05850793          	addi	a5,a0,88
    80002bfa:	40c8                	lw	a0,4(s1)
    80002bfc:	893d                	andi	a0,a0,15
    80002bfe:	051a                	slli	a0,a0,0x6
    80002c00:	953e                	add	a0,a0,a5
  dip->type = ip->type;
    80002c02:	04449703          	lh	a4,68(s1)
    80002c06:	00e51023          	sh	a4,0(a0)
  dip->major = ip->major;
    80002c0a:	04649703          	lh	a4,70(s1)
    80002c0e:	00e51123          	sh	a4,2(a0)
  dip->minor = ip->minor;
    80002c12:	04849703          	lh	a4,72(s1)
    80002c16:	00e51223          	sh	a4,4(a0)
  dip->nlink = ip->nlink;
    80002c1a:	04a49703          	lh	a4,74(s1)
    80002c1e:	00e51323          	sh	a4,6(a0)
  dip->size = ip->size;
    80002c22:	44f8                	lw	a4,76(s1)
